ARM GAS  /var/folders/18/xss02wnj1dvbmt0zsb1nmd100000gn/T//ccDyFfZV.s 			page 1


   1              		.cpu cortex-m7
   2              		.arch armv7e-m
   3              		.fpu fpv4-sp-d16
   4              		.eabi_attribute 27, 1
   5              		.eabi_attribute 28, 1
   6              		.eabi_attribute 20, 1
   7              		.eabi_attribute 21, 1
   8              		.eabi_attribute 23, 3
   9              		.eabi_attribute 24, 1
  10              		.eabi_attribute 25, 1
  11              		.eabi_attribute 26, 1
  12              		.eabi_attribute 30, 4
  13              		.eabi_attribute 34, 1
  14              		.eabi_attribute 18, 4
  15              		.file	"_unit_base.c"
  16              		.text
  17              	.Ltext0:
  18              		.cfi_sections	.debug_frame
  19              		.align	1
  20              		.weak	unit_init
  21              		.syntax unified
  22              		.thumb
  23              		.thumb_func
  24              		.type	unit_init, %function
  25              	unit_init:
  26              	.LVL0:
  27              	.LFB59:
  28              		.file 1 "/Users/majid/repos/logue-sdk/platform/nts-1_mkii/common/_unit_base.c"
  29              		.loc 1 62 74 view -0
  30              		.cfi_startproc
  31              		@ args = 0, pretend = 0, frame = 0
  32              		@ frame_needed = 0, uses_anonymous_args = 0
  33              		@ link register save eliminated.
  34              		.loc 1 63 3 view .LVU1
  35              		.loc 1 64 3 view .LVU2
  36              		.loc 1 65 1 is_stmt 0 view .LVU3
  37 0000 6FF01F00 		mvn	r0, #31
  38              	.LVL1:
  39              		.loc 1 65 1 view .LVU4
  40 0004 7047     		bx	lr
  41              		.cfi_endproc
  42              	.LFE59:
  43              		.size	unit_init, .-unit_init
  44              		.align	1
  45              		.weak	unit_teardown
  46              		.syntax unified
  47              		.thumb
  48              		.thumb_func
  49              		.type	unit_teardown, %function
  50              	unit_teardown:
  51              	.LFB60:
  52              		.loc 1 67 44 is_stmt 1 view -0
  53              		.cfi_startproc
  54              		@ args = 0, pretend = 0, frame = 0
  55              		@ frame_needed = 0, uses_anonymous_args = 0
  56              		@ link register save eliminated.
  57              		.loc 1 67 45 view .LVU6
ARM GAS  /var/folders/18/xss02wnj1dvbmt0zsb1nmd100000gn/T//ccDyFfZV.s 			page 2


  58 0006 7047     		bx	lr
  59              		.cfi_endproc
  60              	.LFE60:
  61              		.size	unit_teardown, .-unit_teardown
  62              		.align	1
  63              		.weak	unit_reset
  64              		.syntax unified
  65              		.thumb
  66              		.thumb_func
  67              		.type	unit_reset, %function
  68              	unit_reset:
  69              	.LFB77:
  70              		.cfi_startproc
  71              		@ args = 0, pretend = 0, frame = 0
  72              		@ frame_needed = 0, uses_anonymous_args = 0
  73              		@ link register save eliminated.
  74 0008 7047     		bx	lr
  75              		.cfi_endproc
  76              	.LFE77:
  77              		.size	unit_reset, .-unit_reset
  78              		.align	1
  79              		.weak	unit_resume
  80              		.syntax unified
  81              		.thumb
  82              		.thumb_func
  83              		.type	unit_resume, %function
  84              	unit_resume:
  85              	.LFB79:
  86              		.cfi_startproc
  87              		@ args = 0, pretend = 0, frame = 0
  88              		@ frame_needed = 0, uses_anonymous_args = 0
  89              		@ link register save eliminated.
  90 000a 7047     		bx	lr
  91              		.cfi_endproc
  92              	.LFE79:
  93              		.size	unit_resume, .-unit_resume
  94              		.align	1
  95              		.weak	unit_suspend
  96              		.syntax unified
  97              		.thumb
  98              		.thumb_func
  99              		.type	unit_suspend, %function
 100              	unit_suspend:
 101              	.LFB81:
 102              		.cfi_startproc
 103              		@ args = 0, pretend = 0, frame = 0
 104              		@ frame_needed = 0, uses_anonymous_args = 0
 105              		@ link register save eliminated.
 106 000c 7047     		bx	lr
 107              		.cfi_endproc
 108              	.LFE81:
 109              		.size	unit_suspend, .-unit_suspend
 110              		.align	1
 111              		.weak	unit_render
 112              		.syntax unified
 113              		.thumb
 114              		.thumb_func
ARM GAS  /var/folders/18/xss02wnj1dvbmt0zsb1nmd100000gn/T//ccDyFfZV.s 			page 3


 115              		.type	unit_render, %function
 116              	unit_render:
 117              	.LVL2:
 118              	.LFB64:
 119              		.loc 1 75 88 view -0
 120              		.cfi_startproc
 121              		@ args = 0, pretend = 0, frame = 0
 122              		@ frame_needed = 0, uses_anonymous_args = 0
 123              		@ link register save eliminated.
 124              		.loc 1 76 3 view .LVU8
 125              		.loc 1 77 3 view .LVU9
 126              		.loc 1 78 3 view .LVU10
 127              		.loc 1 79 1 is_stmt 0 view .LVU11
 128 000e 7047     		bx	lr
 129              		.cfi_endproc
 130              	.LFE64:
 131              		.size	unit_render, .-unit_render
 132              		.align	1
 133              		.weak	unit_get_param_value
 134              		.syntax unified
 135              		.thumb
 136              		.thumb_func
 137              		.type	unit_get_param_value, %function
 138              	unit_get_param_value:
 139              	.LVL3:
 140              	.LFB65:
 141              		.loc 1 81 64 is_stmt 1 view -0
 142              		.cfi_startproc
 143              		@ args = 0, pretend = 0, frame = 0
 144              		@ frame_needed = 0, uses_anonymous_args = 0
 145              		@ link register save eliminated.
 146              		.loc 1 82 3 view .LVU13
 147              		.loc 1 83 3 view .LVU14
 148              		.loc 1 84 1 is_stmt 0 view .LVU15
 149 0010 0020     		movs	r0, #0
 150              	.LVL4:
 151              		.loc 1 84 1 view .LVU16
 152 0012 7047     		bx	lr
 153              		.cfi_endproc
 154              	.LFE65:
 155              		.size	unit_get_param_value, .-unit_get_param_value
 156              		.align	1
 157              		.weak	unit_get_param_str_value
 158              		.syntax unified
 159              		.thumb
 160              		.thumb_func
 161              		.type	unit_get_param_str_value, %function
 162              	unit_get_param_str_value:
 163              	.LVL5:
 164              	.LFB66:
 165              		.loc 1 86 88 is_stmt 1 view -0
 166              		.cfi_startproc
 167              		@ args = 0, pretend = 0, frame = 0
 168              		@ frame_needed = 0, uses_anonymous_args = 0
 169              		@ link register save eliminated.
 170              		.loc 1 87 3 view .LVU18
 171              		.loc 1 88 3 view .LVU19
ARM GAS  /var/folders/18/xss02wnj1dvbmt0zsb1nmd100000gn/T//ccDyFfZV.s 			page 4


 172              		.loc 1 89 3 view .LVU20
 173              		.loc 1 90 1 is_stmt 0 view .LVU21
 174 0014 0020     		movs	r0, #0
 175              	.LVL6:
 176              		.loc 1 90 1 view .LVU22
 177 0016 7047     		bx	lr
 178              		.cfi_endproc
 179              	.LFE66:
 180              		.size	unit_get_param_str_value, .-unit_get_param_str_value
 181              		.align	1
 182              		.weak	unit_set_param_value
 183              		.syntax unified
 184              		.thumb
 185              		.thumb_func
 186              		.type	unit_set_param_value, %function
 187              	unit_set_param_value:
 188              	.LVL7:
 189              	.LFB67:
 190              		.loc 1 92 76 is_stmt 1 view -0
 191              		.cfi_startproc
 192              		@ args = 0, pretend = 0, frame = 0
 193              		@ frame_needed = 0, uses_anonymous_args = 0
 194              		@ link register save eliminated.
 195              		.loc 1 93 3 view .LVU24
 196              		.loc 1 94 3 view .LVU25
 197              		.loc 1 95 1 is_stmt 0 view .LVU26
 198 0018 7047     		bx	lr
 199              		.cfi_endproc
 200              	.LFE67:
 201              		.size	unit_set_param_value, .-unit_set_param_value
 202              		.align	1
 203              		.weak	unit_set_tempo
 204              		.syntax unified
 205              		.thumb
 206              		.thumb_func
 207              		.type	unit_set_tempo, %function
 208              	unit_set_tempo:
 209              	.LVL8:
 210              	.LFB68:
 211              		.loc 1 97 59 is_stmt 1 view -0
 212              		.cfi_startproc
 213              		@ args = 0, pretend = 0, frame = 0
 214              		@ frame_needed = 0, uses_anonymous_args = 0
 215              		@ link register save eliminated.
 216              		.loc 1 97 61 view .LVU28
 217              		.loc 1 97 74 is_stmt 0 view .LVU29
 218 001a 7047     		bx	lr
 219              		.cfi_endproc
 220              	.LFE68:
 221              		.size	unit_set_tempo, .-unit_set_tempo
 222              		.align	1
 223              		.weak	unit_tempo_4ppqn_tick
 224              		.syntax unified
 225              		.thumb
 226              		.thumb_func
 227              		.type	unit_tempo_4ppqn_tick, %function
 228              	unit_tempo_4ppqn_tick:
ARM GAS  /var/folders/18/xss02wnj1dvbmt0zsb1nmd100000gn/T//ccDyFfZV.s 			page 5


 229              	.LFB85:
 230              		.cfi_startproc
 231              		@ args = 0, pretend = 0, frame = 0
 232              		@ frame_needed = 0, uses_anonymous_args = 0
 233              		@ link register save eliminated.
 234 001c 7047     		bx	lr
 235              		.cfi_endproc
 236              	.LFE85:
 237              		.size	unit_tempo_4ppqn_tick, .-unit_tempo_4ppqn_tick
 238              		.align	1
 239              		.weak	unit_note_on
 240              		.syntax unified
 241              		.thumb
 242              		.thumb_func
 243              		.type	unit_note_on, %function
 244              	unit_note_on:
 245              	.LVL9:
 246              	.LFB70:
 247              		.loc 1 101 68 is_stmt 1 view -0
 248              		.cfi_startproc
 249              		@ args = 0, pretend = 0, frame = 0
 250              		@ frame_needed = 0, uses_anonymous_args = 0
 251              		@ link register save eliminated.
 252              		.loc 1 102 3 view .LVU31
 253              		.loc 1 103 3 view .LVU32
 254              		.loc 1 104 1 is_stmt 0 view .LVU33
 255 001e 7047     		bx	lr
 256              		.cfi_endproc
 257              	.LFE70:
 258              		.size	unit_note_on, .-unit_note_on
 259              		.align	1
 260              		.weak	unit_note_off
 261              		.syntax unified
 262              		.thumb
 263              		.thumb_func
 264              		.type	unit_note_off, %function
 265              	unit_note_off:
 266              	.LVL10:
 267              	.LFB71:
 268              		.loc 1 106 56 is_stmt 1 view -0
 269              		.cfi_startproc
 270              		@ args = 0, pretend = 0, frame = 0
 271              		@ frame_needed = 0, uses_anonymous_args = 0
 272              		@ link register save eliminated.
 273              		.loc 1 106 58 view .LVU35
 274              		.loc 1 106 70 is_stmt 0 view .LVU36
 275 0020 7047     		bx	lr
 276              		.cfi_endproc
 277              	.LFE71:
 278              		.size	unit_note_off, .-unit_note_off
 279              		.align	1
 280              		.weak	unit_all_note_off
 281              		.syntax unified
 282              		.thumb
 283              		.thumb_func
 284              		.type	unit_all_note_off, %function
 285              	unit_all_note_off:
ARM GAS  /var/folders/18/xss02wnj1dvbmt0zsb1nmd100000gn/T//ccDyFfZV.s 			page 6


 286              	.LFB72:
 287              		.loc 1 108 52 is_stmt 1 view -0
 288              		.cfi_startproc
 289              		@ args = 0, pretend = 0, frame = 0
 290              		@ frame_needed = 0, uses_anonymous_args = 0
 291              		@ link register save eliminated.
 292              		.loc 1 108 53 view .LVU38
 293 0022 7047     		bx	lr
 294              		.cfi_endproc
 295              	.LFE72:
 296              		.size	unit_all_note_off, .-unit_all_note_off
 297              		.align	1
 298              		.weak	unit_pitch_bend
 299              		.syntax unified
 300              		.thumb
 301              		.thumb_func
 302              		.type	unit_pitch_bend, %function
 303              	unit_pitch_bend:
 304              	.LVL11:
 305              	.LFB73:
 306              		.loc 1 110 59 view -0
 307              		.cfi_startproc
 308              		@ args = 0, pretend = 0, frame = 0
 309              		@ frame_needed = 0, uses_anonymous_args = 0
 310              		@ link register save eliminated.
 311              		.loc 1 110 61 view .LVU40
 312              		.loc 1 110 73 is_stmt 0 view .LVU41
 313 0024 7047     		bx	lr
 314              		.cfi_endproc
 315              	.LFE73:
 316              		.size	unit_pitch_bend, .-unit_pitch_bend
 317              		.align	1
 318              		.weak	unit_channel_pressure
 319              		.syntax unified
 320              		.thumb
 321              		.thumb_func
 322              		.type	unit_channel_pressure, %function
 323              	unit_channel_pressure:
 324              	.LFB87:
 325              		.cfi_startproc
 326              		@ args = 0, pretend = 0, frame = 0
 327              		@ frame_needed = 0, uses_anonymous_args = 0
 328              		@ link register save eliminated.
 329 0026 7047     		bx	lr
 330              		.cfi_endproc
 331              	.LFE87:
 332              		.size	unit_channel_pressure, .-unit_channel_pressure
 333              		.align	1
 334              		.weak	unit_aftertouch
 335              		.syntax unified
 336              		.thumb
 337              		.thumb_func
 338              		.type	unit_aftertouch, %function
 339              	unit_aftertouch:
 340              	.LFB83:
 341              		.cfi_startproc
 342              		@ args = 0, pretend = 0, frame = 0
ARM GAS  /var/folders/18/xss02wnj1dvbmt0zsb1nmd100000gn/T//ccDyFfZV.s 			page 7


 343              		@ frame_needed = 0, uses_anonymous_args = 0
 344              		@ link register save eliminated.
 345 0028 7047     		bx	lr
 346              		.cfi_endproc
 347              	.LFE83:
 348              		.size	unit_aftertouch, .-unit_aftertouch
 349              		.weak	unit_header
 350              		.section	.unit_header,"a"
 351              		.type	unit_header, %object
 352              		.size	unit_header, 408
 353              	unit_header:
 354 0000 98010000 		.4byte	408
 355 0004 00050000 		.4byte	1280
 356 0008 00000200 		.4byte	131072
 357 000c 00000000 		.4byte	0
 358 0010 00000000 		.4byte	0
 359 0014 00000000 		.4byte	0
 360 0018 756E6465 		.ascii	"undefined\000"
 360      66696E65 
 360      6400
 361 0022 00000000 		.space	10
 361      00000000 
 361      0000
 362 002c 00000000 		.4byte	0
 363 0030 00000000 		.space	4
 364 0034 00000000 		.4byte	0
 365 0038 0000     		.2byte	0
 366 003a 00000000 		.space	30
 366      00000000 
 366      00000000 
 366      00000000 
 366      00000000 
 367 0058 00000000 		.space	320
 367      00000000 
 367      00000000 
 367      00000000 
 367      00000000 
 368              		.text
 369              	.Letext0:
 370              		.file 2 "/Users/majid/repos/logue-sdk/tools/gcc/gcc-arm-none-eabi-10.3-2021.10/lib/gcc/arm-none-ea
 371              		.file 3 "/Users/majid/repos/logue-sdk/tools/gcc/gcc-arm-none-eabi-10.3-2021.10/arm-none-eabi/inclu
 372              		.file 4 "/Users/majid/repos/logue-sdk/tools/gcc/gcc-arm-none-eabi-10.3-2021.10/arm-none-eabi/inclu
 373              		.file 5 "/Users/majid/repos/logue-sdk/platform/nts-1_mkii/common/runtime.h"
 374              		.file 6 "/Users/majid/repos/logue-sdk/platform/nts-1_mkii/common/unit.h"