ARM GAS  /var/folders/18/xss02wnj1dvbmt0zsb1nmd100000gn/T//ccDyFfZV.s 			page 1


   1              		.cpu cortex-m7
   2              		.arch armv7e-m
   3              		.fpu fpv4-sp-d16
   4              		.eabi_attribute 27, 1
   5              		.eabi_attribute 28, 1
   6              		.eabi_attribute 20, 1
   7              		.eabi_attribute 21, 1
   8              		.eabi_attribute 23, 3
   9              		.eabi_attribute 24, 1
  10              		.eabi_attribute 25, 1
  11              		.eabi_attribute 26, 1
  12              		.eabi_attribute 30, 4
  13              		.eabi_attribute 34, 1
  14              		.eabi_attribute 18, 4
  15              		.file	"_unit_base.c"
  16              		.text
  17              	.Ltext0:
  18              		.cfi_sections	.debug_frame
  19              		.align	1
  20              		.weak	unit_init
  21              		.syntax unified
  22              		.thumb
  23              		.thumb_func
  24              		.type	unit_init, %function
  25              	unit_init:
  26              	.LVL0:
  27              	.LFB59:
  28              		.file 1 "/Users/majid/repos/logue-sdk/platform/nts-1_mkii/common/_unit_base.c"
  29              		.loc 1 62 74 view -0
  30              		.cfi_startproc
  31              		@ args = 0, pretend = 0, frame = 0
  32              		@ frame_needed = 0, uses_anonymous_args = 0
  33              		@ link register save eliminated.
  34              		.loc 1 63 3 view .LVU1
  35              		.loc 1 64 3 view .LVU2
  36              		.loc 1 65 1 is_stmt 0 view .LVU3
  37 0000 6FF01F00 		mvn	r0, #31
  38              	.LVL1:
  39              		.loc 1 65 1 view .LVU4
  40 0004 7047     		bx	lr
  41              		.cfi_endproc
  42              	.LFE59:
  43              		.size	unit_init, .-unit_init
  44              		.align	1
  45              		.weak	unit_teardown
  46              		.syntax unified
  47              		.thumb
  48              		.thumb_func
  49              		.type	unit_teardown, %function
  50              	unit_teardown:
  51              	.LFB60:
  52              		.loc 1 67 44 is_stmt 1 view -0
  53              		.cfi_startproc
  54              		@ args = 0, pretend = 0, frame = 0
  55              		@ frame_needed = 0, uses_anonymous_args = 0
  56              		@ link register save eliminated.
  57              		.loc 1 67 45 view .LVU6
ARM GAS  /var/folders/18/xss02wnj1dvbmt0zsb1nmd100000gn/T//ccDyFfZV.s 			page 2


  58 0006 7047     		bx	lr
  59              		.cfi_endproc
  60              	.LFE60:
  61              		.size	unit_teardown, .-unit_teardown
  62              		.align	1
  63              		.weak	unit_reset
  64              		.syntax unified
  65              		.thumb
  66              		.thumb_func
  67              		.type	unit_reset, %function
  68              	unit_reset:
  69              	.LFB77:
  70              		.cfi_startproc
  71              		@ args = 0, pretend = 0, frame = 0
  72              		@ frame_needed = 0, uses_anonymous_args = 0
  73              		@ link register save eliminated.
  74 0008 7047     		bx	lr
  75              		.cfi_endproc
  76              	.LFE77:
  77              		.size	unit_reset, .-unit_reset
  78              		.align	1
  79              		.weak	unit_resume
  80              		.syntax unified
  81              		.thumb
  82              		.thumb_func
  83              		.type	unit_resume, %function
  84              	unit_resume:
  85              	.LFB79:
  86              		.cfi_startproc
  87              		@ args = 0, pretend = 0, frame = 0
  88              		@ frame_needed = 0, uses_anonymous_args = 0
  89              		@ link register save eliminated.
  90 000a 7047     		bx	lr
  91              		.cfi_endproc
  92              	.LFE79:
  93              		.size	unit_resume, .-unit_resume
  94              		.align	1
  95              		.weak	unit_suspend
  96              		.syntax unified
  97              		.thumb
  98              		.thumb_func
  99              		.type	unit_suspend, %function
 100              	unit_suspend:
 101              	.LFB81:
 102              		.cfi_startproc
 103              		@ args = 0, pretend = 0, frame = 0
 104              		@ frame_needed = 0, uses_anonymous_args = 0
 105              		@ link register save eliminated.
 106 000c 7047     		bx	lr
 107              		.cfi_endproc
 108              	.LFE81:
 109              		.size	unit_suspend, .-unit_suspend
 110              		.align	1
 111              		.weak	unit_render
 112              		.syntax unified
 113              		.thumb
 114              		.thumb_func
ARM GAS  /var/folders/18/xss02wnj1dvbmt0zsb1nmd100000gn/T//ccDyFfZV.s 			page 3


 115              		.type	unit_render, %function
 116              	unit_render:
 117              	.LVL2:
 118              	.LFB64:
 119              		.loc 1 75 88 view -0
 120              		.cfi_startproc
 121              		@ args = 0, pretend = 0, frame = 0
 122              		@ frame_needed = 0, uses_anonymous_args = 0
 123              		@ link register save eliminated.
 124              		.loc 1 76 3 view .LVU8
 125              		.loc 1 77 3 view .LVU9
 126              		.loc 1 78 3 view .LVU10
 127              		.loc 1 79 1 is_stmt 0 view .LVU11
 128 000e 7047     		bx	lr
 129              		.cfi_endproc
 130              	.LFE64:
 131              		.size	unit_render, .-unit_render
 132              		.align	1
 133              		.weak	unit_get_param_value
 134              		.syntax unified
 135              		.thumb
 136              		.thumb_func
 137              		.type	unit_get_param_value, %function
 138              	unit_get_param_value:
 139              	.LVL3:
 140              	.LFB65:
 141              		.loc 1 81 64 is_stmt 1 view -0
 142              		.cfi_startproc
 143              		@ args = 0, pretend = 0, frame = 0
 144              		@ frame_needed = 0, uses_anonymous_args = 0
 145              		@ link register save eliminated.
 146              		.loc 1 82 3 view .LVU13
 147              		.loc 1 83 3 view .LVU14
 148              		.loc 1 84 1 is_stmt 0 view .LVU15
 149 0010 0020     		movs	r0, #0
 150              	.LVL4:
 151              		.loc 1 84 1 view .LVU16
 152 0012 7047     		bx	lr
 153              		.cfi_endproc
 154              	.LFE65:
 155              		.size	unit_get_param_value, .-unit_get_param_value
 156              		.align	1
 157              		.weak	unit_get_param_str_value
 158              		.syntax unified
 159              		.thumb
 160              		.thumb_func
 161              		.type	unit_get_param_str_value, %function
 162              	unit_get_param_str_value:
 163              	.LVL5:
 164              	.LFB66:
 165              		.loc 1 86 88 is_stmt 1 view -0
 166              		.cfi_startproc
 167              		@ args = 0, pretend = 0, frame = 0
 168              		@ frame_needed = 0, uses_anonymous_args = 0
 169              		@ link register save eliminated.
 170              		.loc 1 87 3 view .LVU18
 171              		.loc 1 88 3 view .LVU19
ARM GAS  /var/folders/18/xss02wnj1dvbmt0zsb1nmd100000gn/T//ccDyFfZV.s 			page 4


 172              		.loc 1 89 3 view .LVU20
 173              		.loc 1 90 1 is_stmt 0 view .LVU21
 174 0014 0020     		movs	r0, #0
 175              	.LVL6:
 176              		.loc 1 90 1 view .LVU22
 177 0016 7047     		bx	lr
 178              		.cfi_endproc
 179              	.LFE66:
 180              		.size	unit_get_param_str_value, .-unit_get_param_str_value
 181              		.align	1
 182              		.weak	unit_set_param_value
 183              		.syntax unified
 184              		.thumb
 185              		.thumb_func
 186              		.type	unit_set_param_value, %function
 187              	unit_set_param_value:
 188              	.LVL7:
 189              	.LFB67:
 190              		.loc 1 92 76 is_stmt 1 view -0
 191              		.cfi_startproc
 192              		@ args = 0, pretend = 0, frame = 0
 193              		@ frame_needed = 0, uses_anonymous_args = 0
 194              		@ link register save eliminated.
 195              		.loc 1 93 3 view .LVU24
 196              		.loc 1 94 3 view .LVU25
 197              		.loc 1 95 1 is_stmt 0 view .LVU26
 198 0018 7047     		bx	lr
 199              		.cfi_endproc
 200              	.LFE67:
 201              		.size	unit_set_param_value, .-unit_set_param_value
 202              		.align	1
 203              		.weak	unit_set_tempo
 204              		.syntax unified
 205              		.thumb
 206              		.thumb_func
 207              		.type	unit_set_tempo, %function
 208              	unit_set_tempo:
 209              	.LVL8:
 210              	.LFB68:
 211              		.loc 1 97 59 is_stmt 1 view -0
 212              		.cfi_startproc
 213              		@ args = 0, pretend = 0, frame = 0
 214              		@ frame_needed = 0, uses_anonymous_args = 0
 215              		@ link register save eliminated.
 216              		.loc 1 97 61 view .LVU28
 217              		.loc 1 97 74 is_stmt 0 view .LVU29
 218 001a 7047     		bx	lr
 219              		.cfi_endproc
 220              	.LFE68:
 221              		.size	unit_set_tempo, .-unit_set_tempo
 222              		.align	1
 223              		.weak	unit_tempo_4ppqn_tick
 224              		.syntax unified
 225              		.thumb
 226              		.thumb_func
 227              		.type	unit_tempo_4ppqn_tick, %function
 228              	unit_tempo_4ppqn_tick:
ARM GAS  /var/folders/18/xss02wnj1dvbmt0zsb1nmd100000gn/T//ccDyFfZV.s 			page 5


 229              	.LFB85:
 230              		.cfi_startproc
 231              		@ args = 0, pretend = 0, frame = 0
 232              		@ frame_needed = 0, uses_anonymous_args = 0
 233              		@ link register save eliminated.
 234 001c 7047     		bx	lr
 235              		.cfi_endproc
 236              	.LFE85:
 237              		.size	unit_tempo_4ppqn_tick, .-unit_tempo_4ppqn_tick
 238              		.align	1
 239              		.weak	unit_note_on
 240              		.syntax unified
 241              		.thumb
 242              		.thumb_func
 243              		.type	unit_note_on, %function
 244              	unit_note_on:
 245              	.LVL9:
 246              	.LFB70:
 247              		.loc 1 101 68 is_stmt 1 view -0
 248              		.cfi_startproc
 249              		@ args = 0, pretend = 0, frame = 0
 250              		@ frame_needed = 0, uses_anonymous_args = 0
 251              		@ link register save eliminated.
 252              		.loc 1 102 3 view .LVU31
 253              		.loc 1 103 3 view .LVU32
 254              		.loc 1 104 1 is_stmt 0 view .LVU33
 255 001e 7047     		bx	lr
 256              		.cfi_endproc
 257              	.LFE70:
 258              		.size	unit_note_on, .-unit_note_on
 259              		.align	1
 260              		.weak	unit_note_off
 261              		.syntax unified
 262              		.thumb
 263              		.thumb_func
 264              		.type	unit_note_off, %function
 265              	unit_note_off:
 266              	.LVL10:
 267              	.LFB71:
 268              		.loc 1 106 56 is_stmt 1 view -0
 269              		.cfi_startproc
 270              		@ args = 0, pretend = 0, frame = 0
 271              		@ frame_needed = 0, uses_anonymous_args = 0
 272              		@ link register save eliminated.
 273              		.loc 1 106 58 view .LVU35
 274              		.loc 1 106 70 is_stmt 0 view .LVU36
 275 0020 7047     		bx	lr
 276              		.cfi_endproc
 277              	.LFE71:
 278              		.size	unit_note_off, .-unit_note_off
 279              		.align	1
 280              		.weak	unit_all_note_off
 281              		.syntax unified
 282              		.thumb
 283              		.thumb_func
 284              		.type	unit_all_note_off, %function
 285              	unit_all_note_off:
ARM GAS  /var/folders/18/xss02wnj1dvbmt0zsb1nmd100000gn/T//ccDyFfZV.s 			page 6


 286              	.LFB72:
 287              		.loc 1 108 52 is_stmt 1 view -0
 288              		.cfi_startproc
 289              		@ args = 0, pretend = 0, frame = 0
 290              		@ frame_needed = 0, uses_anonymous_args = 0
 291              		@ link register save eliminated.
 292              		.loc 1 108 53 view .LVU38
 293 0022 7047     		bx	lr
 294              		.cfi_endproc
 295              	.LFE72:
 296              		.size	unit_all_note_off, .-unit_all_note_off
 297              		.align	1
 298              		.weak	unit_pitch_bend
 299              		.syntax unified
 300              		.thumb
 301              		.thumb_func
 302              		.type	unit_pitch_bend, %function
 303              	unit_pitch_bend:
 304              	.LVL11:
 305              	.LFB73:
 306              		.loc 1 110 59 view -0
 307              		.cfi_startproc
 308              		@ args = 0, pretend = 0, frame = 0
 309              		@ frame_needed = 0, uses_anonymous_args = 0
 310              		@ link register save eliminated.
 311              		.loc 1 110 61 view .LVU40
 312              		.loc 1 110 73 is_stmt 0 view .LVU41
 313 0024 7047     		bx	lr
 314              		.cfi_endproc
 315              	.LFE73:
 316              		.size	unit_pitch_bend, .-unit_pitch_bend
 317              		.align	1
 318              		.weak	unit_channel_pressure
 319              		.syntax unified
 320              		.thumb
 321              		.thumb_func
 322              		.type	unit_channel_pressure, %function
 323              	unit_channel_pressure:
 324              	.LFB87:
 325              		.cfi_startproc
 326              		@ args = 0, pretend = 0, frame = 0
 327              		@ frame_needed = 0, uses_anonymous_args = 0
 328              		@ link register save eliminated.
 329 0026 7047     		bx	lr
 330              		.cfi_endproc
 331              	.LFE87:
 332              		.size	unit_channel_pressure, .-unit_channel_pressure
 333              		.align	1
 334              		.weak	unit_aftertouch
 335              		.syntax unified
 336              		.thumb
 337              		.thumb_func
 338              		.type	unit_aftertouch, %function
 339              	unit_aftertouch:
 340              	.LFB83:
 341              		.cfi_startproc
 342              		@ args = 0, pretend = 0, frame = 0
ARM GAS  /var/folders/18/xss02wnj1dvbmt0zsb1nmd100000gn/T//ccDyFfZV.s 			page 7


 343              		@ frame_needed = 0, uses_anonymous_args = 0
 344              		@ link register save eliminated.
 345 0028 7047     		bx	lr
 346              		.cfi_endproc
 347              	.LFE83:
 348              		.size	unit_aftertouch, .-unit_aftertouch
 349              		.weak	unit_header
 350              		.section	.unit_header,"a"
 351              		.type	unit_header, %object
 352              		.size	unit_header, 408
 353              	unit_header:
 354 0000 98010000 		.4byte	408
 355 0004 00050000 		.4byte	1280
 356 0008 00000200 		.4byte	131072
 357 000c 00000000 		.4byte	0
 358 0010 00000000 		.4byte	0
 359 0014 00000000 		.4byte	0
 360 0018 756E6465 		.ascii	"undefined\000"
 360      66696E65 
 360      6400
 361 0022 00000000 		.space	10
 361      00000000 
 361      0000
 362 002c 00000000 		.4byte	0
 363 0030 00000000 		.space	4
 364 0034 00000000 		.4byte	0
 365 0038 0000     		.2byte	0
 366 003a 00000000 		.space	30
 366      00000000 
 366      00000000 
 366      00000000 
 366      00000000 
 367 0058 00000000 		.space	320
 367      00000000 
 367      00000000 
 367      00000000 
 367      00000000 
 368              		.text
 369              	.Letext0:
 370              		.file 2 "/Users/majid/repos/logue-sdk/tools/gcc/gcc-arm-none-eabi-10.3-2021.10/lib/gcc/arm-none-ea
 371              		.file 3 "/Users/majid/repos/logue-sdk/tools/gcc/gcc-arm-none-eabi-10.3-2021.10/arm-none-eabi/inclu
 372              		.file 4 "/Users/majid/repos/logue-sdk/tools/gcc/gcc-arm-none-eabi-10.3-2021.10/arm-none-eabi/inclu
 373              		.file 5 "/Users/majid/repos/logue-sdk/platform/nts-1_mkii/common/runtime.h"
 374              		.file 6 "/Users/majid/repos/logue-sdk/platform/nts-1_mkii/common/unit.h"
 375              		.section	.debug_info,"",%progbits
 376              	.Ldebug_info0:
 377 0000 B9070000 		.4byte	0x7b9
 378 0004 0400     		.2byte	0x4
 379 0006 00000000 		.4byte	.Ldebug_abbrev0
 380 000a 04       		.byte	0x4
 381 000b 01       		.uleb128 0x1
 382 000c B8060000 		.4byte	.LASF114
 383 0010 0C       		.byte	0xc
 384 0011 40000000 		.4byte	.LASF115
 385 0015 E8030000 		.4byte	.LASF116
 386 0019 00000000 		.4byte	.Ltext0
 387 001d 2A000000 		.4byte	.Letext0-.Ltext0
ARM GAS  /var/folders/18/xss02wnj1dvbmt0zsb1nmd100000gn/T//ccDyFfZV.s 			page 8


 388 0021 00000000 		.4byte	.Ldebug_line0
 389 0025 02       		.uleb128 0x2
 390 0026 04       		.byte	0x4
 391 0027 05       		.byte	0x5
 392 0028 696E7400 		.ascii	"int\000"
 393 002c 03       		.uleb128 0x3
 394 002d 94020000 		.4byte	.LASF3
 395 0031 02       		.byte	0x2
 396 0032 D1       		.byte	0xd1
 397 0033 17       		.byte	0x17
 398 0034 38000000 		.4byte	0x38
 399 0038 04       		.uleb128 0x4
 400 0039 04       		.byte	0x4
 401 003a 07       		.byte	0x7
 402 003b F3000000 		.4byte	.LASF0
 403 003f 04       		.uleb128 0x4
 404 0040 08       		.byte	0x8
 405 0041 05       		.byte	0x5
 406 0042 DA030000 		.4byte	.LASF1
 407 0046 04       		.uleb128 0x4
 408 0047 08       		.byte	0x8
 409 0048 04       		.byte	0x4
 410 0049 B0040000 		.4byte	.LASF2
 411 004d 03       		.uleb128 0x3
 412 004e 94040000 		.4byte	.LASF4
 413 0052 03       		.byte	0x3
 414 0053 29       		.byte	0x29
 415 0054 17       		.byte	0x17
 416 0055 59000000 		.4byte	0x59
 417 0059 04       		.uleb128 0x4
 418 005a 01       		.byte	0x1
 419 005b 06       		.byte	0x6
 420 005c 08080000 		.4byte	.LASF5
 421 0060 03       		.uleb128 0x3
 422 0061 55050000 		.4byte	.LASF6
 423 0065 03       		.byte	0x3
 424 0066 2B       		.byte	0x2b
 425 0067 18       		.byte	0x18
 426 0068 6C000000 		.4byte	0x6c
 427 006c 04       		.uleb128 0x4
 428 006d 01       		.byte	0x1
 429 006e 08       		.byte	0x8
 430 006f 73060000 		.4byte	.LASF7
 431 0073 03       		.uleb128 0x3
 432 0074 42040000 		.4byte	.LASF8
 433 0078 03       		.byte	0x3
 434 0079 37       		.byte	0x37
 435 007a 18       		.byte	0x18
 436 007b 7F000000 		.4byte	0x7f
 437 007f 04       		.uleb128 0x4
 438 0080 02       		.byte	0x2
 439 0081 05       		.byte	0x5
 440 0082 F6040000 		.4byte	.LASF9
 441 0086 03       		.uleb128 0x3
 442 0087 18020000 		.4byte	.LASF10
 443 008b 03       		.byte	0x3
 444 008c 39       		.byte	0x39
ARM GAS  /var/folders/18/xss02wnj1dvbmt0zsb1nmd100000gn/T//ccDyFfZV.s 			page 9


 445 008d 19       		.byte	0x19
 446 008e 92000000 		.4byte	0x92
 447 0092 04       		.uleb128 0x4
 448 0093 02       		.byte	0x2
 449 0094 07       		.byte	0x7
 450 0095 14080000 		.4byte	.LASF11
 451 0099 03       		.uleb128 0x3
 452 009a 1B010000 		.4byte	.LASF12
 453 009e 03       		.byte	0x3
 454 009f 4D       		.byte	0x4d
 455 00a0 18       		.byte	0x18
 456 00a1 A5000000 		.4byte	0xa5
 457 00a5 04       		.uleb128 0x4
 458 00a6 04       		.byte	0x4
 459 00a7 05       		.byte	0x5
 460 00a8 0D050000 		.4byte	.LASF13
 461 00ac 03       		.uleb128 0x3
 462 00ad 81060000 		.4byte	.LASF14
 463 00b1 03       		.byte	0x3
 464 00b2 4F       		.byte	0x4f
 465 00b3 19       		.byte	0x19
 466 00b4 B8000000 		.4byte	0xb8
 467 00b8 04       		.uleb128 0x4
 468 00b9 04       		.byte	0x4
 469 00ba 07       		.byte	0x7
 470 00bb 1D060000 		.4byte	.LASF15
 471 00bf 04       		.uleb128 0x4
 472 00c0 08       		.byte	0x8
 473 00c1 07       		.byte	0x7
 474 00c2 01020000 		.4byte	.LASF16
 475 00c6 03       		.uleb128 0x3
 476 00c7 78010000 		.4byte	.LASF17
 477 00cb 04       		.byte	0x4
 478 00cc 14       		.byte	0x14
 479 00cd 12       		.byte	0x12
 480 00ce 4D000000 		.4byte	0x4d
 481 00d2 03       		.uleb128 0x3
 482 00d3 A8030000 		.4byte	.LASF18
 483 00d7 04       		.byte	0x4
 484 00d8 18       		.byte	0x18
 485 00d9 13       		.byte	0x13
 486 00da 60000000 		.4byte	0x60
 487 00de 05       		.uleb128 0x5
 488 00df D2000000 		.4byte	0xd2
 489 00e3 03       		.uleb128 0x3
 490 00e4 F9010000 		.4byte	.LASF19
 491 00e8 04       		.byte	0x4
 492 00e9 20       		.byte	0x20
 493 00ea 13       		.byte	0x13
 494 00eb 73000000 		.4byte	0x73
 495 00ef 03       		.uleb128 0x3
 496 00f0 BC040000 		.4byte	.LASF20
 497 00f4 04       		.byte	0x4
 498 00f5 24       		.byte	0x24
 499 00f6 14       		.byte	0x14
 500 00f7 86000000 		.4byte	0x86
 501 00fb 03       		.uleb128 0x3
ARM GAS  /var/folders/18/xss02wnj1dvbmt0zsb1nmd100000gn/T//ccDyFfZV.s 			page 10


 502 00fc 2F060000 		.4byte	.LASF21
 503 0100 04       		.byte	0x4
 504 0101 2C       		.byte	0x2c
 505 0102 13       		.byte	0x13
 506 0103 99000000 		.4byte	0x99
 507 0107 03       		.uleb128 0x3
 508 0108 6F010000 		.4byte	.LASF22
 509 010c 04       		.byte	0x4
 510 010d 30       		.byte	0x30
 511 010e 14       		.byte	0x14
 512 010f AC000000 		.4byte	0xac
 513 0113 04       		.uleb128 0x4
 514 0114 01       		.byte	0x1
 515 0115 08       		.byte	0x8
 516 0116 8A030000 		.4byte	.LASF23
 517 011a 05       		.uleb128 0x5
 518 011b 13010000 		.4byte	0x113
 519 011f 06       		.uleb128 0x6
 520 0120 04       		.byte	0x4
 521 0121 1A010000 		.4byte	0x11a
 522 0125 04       		.uleb128 0x4
 523 0126 04       		.byte	0x4
 524 0127 04       		.byte	0x4
 525 0128 A1010000 		.4byte	.LASF24
 526 012c 05       		.uleb128 0x5
 527 012d 25010000 		.4byte	0x125
 528 0131 04       		.uleb128 0x4
 529 0132 08       		.byte	0x8
 530 0133 04       		.byte	0x4
 531 0134 30080000 		.4byte	.LASF25
 532 0138 07       		.uleb128 0x7
 533 0139 07       		.byte	0x7
 534 013a 01       		.byte	0x1
 535 013b 6C000000 		.4byte	0x6c
 536 013f 05       		.byte	0x5
 537 0140 38       		.byte	0x38
 538 0141 08       		.byte	0x8
 539 0142 77010000 		.4byte	0x177
 540 0146 08       		.uleb128 0x8
 541 0147 57030000 		.4byte	.LASF26
 542 014b 00       		.byte	0
 543 014c 08       		.uleb128 0x8
 544 014d B9010000 		.4byte	.LASF27
 545 0151 01       		.byte	0x1
 546 0152 08       		.uleb128 0x8
 547 0153 80050000 		.4byte	.LASF28
 548 0157 02       		.byte	0x2
 549 0158 08       		.uleb128 0x8
 550 0159 A4060000 		.4byte	.LASF29
 551 015d 03       		.byte	0x3
 552 015e 08       		.uleb128 0x8
 553 015f F0020000 		.4byte	.LASF30
 554 0163 04       		.byte	0x4
 555 0164 08       		.uleb128 0x8
 556 0165 AA050000 		.4byte	.LASF31
 557 0169 05       		.byte	0x5
 558 016a 08       		.uleb128 0x8
ARM GAS  /var/folders/18/xss02wnj1dvbmt0zsb1nmd100000gn/T//ccDyFfZV.s 			page 11


 559 016b DB070000 		.4byte	.LASF32
 560 016f 06       		.byte	0x6
 561 0170 08       		.uleb128 0x8
 562 0171 37080000 		.4byte	.LASF33
 563 0175 07       		.byte	0x7
 564 0176 00       		.byte	0
 565 0177 07       		.uleb128 0x7
 566 0178 07       		.byte	0x7
 567 0179 02       		.byte	0x2
 568 017a 92000000 		.4byte	0x92
 569 017e 05       		.byte	0x5
 570 017f 68       		.byte	0x68
 571 0180 08       		.byte	0x8
 572 0181 B0010000 		.4byte	0x1b0
 573 0185 09       		.uleb128 0x9
 574 0186 67040000 		.4byte	.LASF34
 575 018a 0003     		.2byte	0x300
 576 018c 09       		.uleb128 0x9
 577 018d FA050000 		.4byte	.LASF35
 578 0191 0003     		.2byte	0x300
 579 0193 09       		.uleb128 0x9
 580 0194 D7010000 		.4byte	.LASF36
 581 0198 0103     		.2byte	0x301
 582 019a 09       		.uleb128 0x9
 583 019b BE050000 		.4byte	.LASF37
 584 019f 0203     		.2byte	0x302
 585 01a1 09       		.uleb128 0x9
 586 01a2 B9070000 		.4byte	.LASF38
 587 01a6 0303     		.2byte	0x303
 588 01a8 09       		.uleb128 0x9
 589 01a9 16050000 		.4byte	.LASF39
 590 01ad 0403     		.2byte	0x304
 591 01af 00       		.byte	0
 592 01b0 07       		.uleb128 0x7
 593 01b1 07       		.byte	0x7
 594 01b2 02       		.byte	0x2
 595 01b3 92000000 		.4byte	0x92
 596 01b7 05       		.byte	0x5
 597 01b8 8D       		.byte	0x8d
 598 01b9 08       		.byte	0x8
 599 01ba E9010000 		.4byte	0x1e9
 600 01be 09       		.uleb128 0x9
 601 01bf 8C060000 		.4byte	.LASF40
 602 01c3 0005     		.2byte	0x500
 603 01c5 09       		.uleb128 0x9
 604 01c6 C6020000 		.4byte	.LASF41
 605 01ca 0005     		.2byte	0x500
 606 01cc 09       		.uleb128 0x9
 607 01cd 9B070000 		.4byte	.LASF42
 608 01d1 0105     		.2byte	0x501
 609 01d3 09       		.uleb128 0x9
 610 01d4 39030000 		.4byte	.LASF43
 611 01d8 0205     		.2byte	0x502
 612 01da 09       		.uleb128 0x9
 613 01db BC030000 		.4byte	.LASF44
 614 01df 0305     		.2byte	0x503
 615 01e1 09       		.uleb128 0x9
ARM GAS  /var/folders/18/xss02wnj1dvbmt0zsb1nmd100000gn/T//ccDyFfZV.s 			page 12


 616 01e2 5F050000 		.4byte	.LASF45
 617 01e6 0405     		.2byte	0x504
 618 01e8 00       		.byte	0
 619 01e9 07       		.uleb128 0x7
 620 01ea 07       		.byte	0x7
 621 01eb 04       		.byte	0x4
 622 01ec 38000000 		.4byte	0x38
 623 01f0 05       		.byte	0x5
 624 01f1 A8       		.byte	0xa8
 625 01f2 08       		.byte	0x8
 626 01f3 13020000 		.4byte	0x213
 627 01f7 0A       		.uleb128 0xa
 628 01f8 4E010000 		.4byte	.LASF46
 629 01fc 00000100 		.4byte	0x10000
 630 0200 0A       		.uleb128 0xa
 631 0201 16040000 		.4byte	.LASF47
 632 0205 00010100 		.4byte	0x10100
 633 0209 0A       		.uleb128 0xa
 634 020a 94050000 		.4byte	.LASF48
 635 020e 00000200 		.4byte	0x20000
 636 0212 00       		.byte	0
 637 0213 0B       		.uleb128 0xb
 638 0214 BA000000 		.4byte	.LASF117
 639 0218 05       		.byte	0x5
 640 0219 CC       		.byte	0xcc
 641 021a 10       		.byte	0x10
 642 021b 05       		.uleb128 0x5
 643 021c 13020000 		.4byte	0x213
 644 0220 03       		.uleb128 0x3
 645 0221 52020000 		.4byte	.LASF49
 646 0225 05       		.byte	0x5
 647 0226 D5       		.byte	0xd5
 648 0227 17       		.byte	0x17
 649 0228 2C020000 		.4byte	0x22c
 650 022c 06       		.uleb128 0x6
 651 022d 04       		.byte	0x4
 652 022e 32020000 		.4byte	0x232
 653 0232 0C       		.uleb128 0xc
 654 0233 41020000 		.4byte	0x241
 655 0237 41020000 		.4byte	0x241
 656 023b 0D       		.uleb128 0xd
 657 023c 2C000000 		.4byte	0x2c
 658 0240 00       		.byte	0
 659 0241 06       		.uleb128 0x6
 660 0242 04       		.byte	0x4
 661 0243 D2000000 		.4byte	0xd2
 662 0247 03       		.uleb128 0x3
 663 0248 11000000 		.4byte	.LASF50
 664 024c 05       		.byte	0x5
 665 024d DD       		.byte	0xdd
 666 024e 12       		.byte	0x12
 667 024f 53020000 		.4byte	0x253
 668 0253 06       		.uleb128 0x6
 669 0254 04       		.byte	0x4
 670 0255 59020000 		.4byte	0x259
 671 0259 0E       		.uleb128 0xe
 672 025a 64020000 		.4byte	0x264
ARM GAS  /var/folders/18/xss02wnj1dvbmt0zsb1nmd100000gn/T//ccDyFfZV.s 			page 13


 673 025e 0D       		.uleb128 0xd
 674 025f 64020000 		.4byte	0x264
 675 0263 00       		.byte	0
 676 0264 06       		.uleb128 0x6
 677 0265 04       		.byte	0x4
 678 0266 DE000000 		.4byte	0xde
 679 026a 03       		.uleb128 0x3
 680 026b D6000000 		.4byte	.LASF51
 681 026f 05       		.byte	0x5
 682 0270 E5       		.byte	0xe5
 683 0271 14       		.byte	0x14
 684 0272 76020000 		.4byte	0x276
 685 0276 06       		.uleb128 0x6
 686 0277 04       		.byte	0x4
 687 0278 7C020000 		.4byte	0x27c
 688 027c 0F       		.uleb128 0xf
 689 027d 2C000000 		.4byte	0x2c
 690 0281 10       		.uleb128 0x10
 691 0282 9B020000 		.4byte	.LASF57
 692 0286 10       		.byte	0x10
 693 0287 05       		.byte	0x5
 694 0288 EC       		.byte	0xec
 695 0289 12       		.byte	0x12
 696 028a C3020000 		.4byte	0x2c3
 697 028e 11       		.uleb128 0x11
 698 028f 7A030000 		.4byte	.LASF52
 699 0293 05       		.byte	0x5
 700 0294 ED       		.byte	0xed
 701 0295 28       		.byte	0x28
 702 0296 C3020000 		.4byte	0x2c3
 703 029a 00       		.byte	0
 704 029b 11       		.uleb128 0x11
 705 029c 88040000 		.4byte	.LASF53
 706 02a0 05       		.byte	0x5
 707 02a1 EE       		.byte	0xee
 708 02a2 22       		.byte	0x22
 709 02a3 20020000 		.4byte	0x220
 710 02a7 04       		.byte	0x4
 711 02a8 11       		.uleb128 0x11
 712 02a9 E5020000 		.4byte	.LASF54
 713 02ad 05       		.byte	0x5
 714 02ae EF       		.byte	0xef
 715 02af 21       		.byte	0x21
 716 02b0 47020000 		.4byte	0x247
 717 02b4 08       		.byte	0x8
 718 02b5 11       		.uleb128 0x11
 719 02b6 4A080000 		.4byte	.LASF55
 720 02ba 05       		.byte	0x5
 721 02bb F0       		.byte	0xf0
 722 02bc 22       		.byte	0x22
 723 02bd 6A020000 		.4byte	0x26a
 724 02c1 0C       		.byte	0xc
 725 02c2 00       		.byte	0
 726 02c3 06       		.uleb128 0x6
 727 02c4 04       		.byte	0x4
 728 02c5 1B020000 		.4byte	0x21b
 729 02c9 03       		.uleb128 0x3
ARM GAS  /var/folders/18/xss02wnj1dvbmt0zsb1nmd100000gn/T//ccDyFfZV.s 			page 14


 730 02ca 24030000 		.4byte	.LASF56
 731 02ce 05       		.byte	0x5
 732 02cf F1       		.byte	0xf1
 733 02d0 05       		.byte	0x5
 734 02d1 81020000 		.4byte	0x281
 735 02d5 10       		.uleb128 0x10
 736 02d6 12030000 		.4byte	.LASF58
 737 02da 20       		.byte	0x20
 738 02db 05       		.byte	0x5
 739 02dc F8       		.byte	0xf8
 740 02dd 12       		.byte	0x12
 741 02de 3E030000 		.4byte	0x33e
 742 02e2 11       		.uleb128 0x11
 743 02e3 4C040000 		.4byte	.LASF59
 744 02e7 05       		.byte	0x5
 745 02e8 F9       		.byte	0xf9
 746 02e9 0E       		.byte	0xe
 747 02ea 07010000 		.4byte	0x107
 748 02ee 00       		.byte	0
 749 02ef 12       		.uleb128 0x12
 750 02f0 61706900 		.ascii	"api\000"
 751 02f4 05       		.byte	0x5
 752 02f5 FA       		.byte	0xfa
 753 02f6 0E       		.byte	0xe
 754 02f7 07010000 		.4byte	0x107
 755 02fb 04       		.byte	0x4
 756 02fc 11       		.uleb128 0x11
 757 02fd 37040000 		.4byte	.LASF60
 758 0301 05       		.byte	0x5
 759 0302 FB       		.byte	0xfb
 760 0303 0E       		.byte	0xe
 761 0304 07010000 		.4byte	0x107
 762 0308 08       		.byte	0x8
 763 0309 11       		.uleb128 0x11
 764 030a A8000000 		.4byte	.LASF61
 765 030e 05       		.byte	0x5
 766 030f FC       		.byte	0xfc
 767 0310 0E       		.byte	0xe
 768 0311 EF000000 		.4byte	0xef
 769 0315 0C       		.byte	0xc
 770 0316 11       		.uleb128 0x11
 771 0317 D5040000 		.4byte	.LASF62
 772 031b 05       		.byte	0x5
 773 031c FD       		.byte	0xfd
 774 031d 0D       		.byte	0xd
 775 031e D2000000 		.4byte	0xd2
 776 0322 0E       		.byte	0xe
 777 0323 11       		.uleb128 0x11
 778 0324 27040000 		.4byte	.LASF63
 779 0328 05       		.byte	0x5
 780 0329 FE       		.byte	0xfe
 781 032a 0D       		.byte	0xd
 782 032b D2000000 		.4byte	0xd2
 783 032f 0F       		.byte	0xf
 784 0330 11       		.uleb128 0x11
 785 0331 02080000 		.4byte	.LASF64
 786 0335 05       		.byte	0x5
ARM GAS  /var/folders/18/xss02wnj1dvbmt0zsb1nmd100000gn/T//ccDyFfZV.s 			page 15


 787 0336 FF       		.byte	0xff
 788 0337 1A       		.byte	0x1a
 789 0338 C9020000 		.4byte	0x2c9
 790 033c 10       		.byte	0x10
 791 033d 00       		.byte	0
 792 033e 13       		.uleb128 0x13
 793 033f 53040000 		.4byte	.LASF65
 794 0343 05       		.byte	0x5
 795 0344 0001     		.2byte	0x100
 796 0346 05       		.byte	0x5
 797 0347 D5020000 		.4byte	0x2d5
 798 034b 05       		.uleb128 0x5
 799 034c 3E030000 		.4byte	0x33e
 800 0350 14       		.uleb128 0x14
 801 0351 96030000 		.4byte	.LASF66
 802 0355 20       		.byte	0x20
 803 0356 05       		.byte	0x5
 804 0357 3301     		.2byte	0x133
 805 0359 12       		.byte	0x12
 806 035a E6030000 		.4byte	0x3e6
 807 035e 15       		.uleb128 0x15
 808 035f 6D696E00 		.ascii	"min\000"
 809 0363 05       		.byte	0x5
 810 0364 3401     		.2byte	0x134
 811 0366 0D       		.byte	0xd
 812 0367 E3000000 		.4byte	0xe3
 813 036b 00       		.byte	0
 814 036c 15       		.uleb128 0x15
 815 036d 6D617800 		.ascii	"max\000"
 816 0371 05       		.byte	0x5
 817 0372 3501     		.2byte	0x135
 818 0374 0D       		.byte	0xd
 819 0375 E3000000 		.4byte	0xe3
 820 0379 02       		.byte	0x2
 821 037a 16       		.uleb128 0x16
 822 037b 8F030000 		.4byte	.LASF67
 823 037f 05       		.byte	0x5
 824 0380 3601     		.2byte	0x136
 825 0382 0D       		.byte	0xd
 826 0383 E3000000 		.4byte	0xe3
 827 0387 04       		.byte	0x4
 828 0388 16       		.uleb128 0x16
 829 0389 E0050000 		.4byte	.LASF68
 830 038d 05       		.byte	0x5
 831 038e 3701     		.2byte	0x137
 832 0390 0D       		.byte	0xd
 833 0391 E3000000 		.4byte	0xe3
 834 0395 06       		.byte	0x6
 835 0396 16       		.uleb128 0x16
 836 0397 6E060000 		.4byte	.LASF69
 837 039b 05       		.byte	0x5
 838 039c 3801     		.2byte	0x138
 839 039e 0D       		.byte	0xd
 840 039f D2000000 		.4byte	0xd2
 841 03a3 08       		.byte	0x8
 842 03a4 17       		.uleb128 0x17
 843 03a5 16010000 		.4byte	.LASF70
ARM GAS  /var/folders/18/xss02wnj1dvbmt0zsb1nmd100000gn/T//ccDyFfZV.s 			page 16


 844 03a9 05       		.byte	0x5
 845 03aa 3901     		.2byte	0x139
 846 03ac 0D       		.byte	0xd
 847 03ad D2000000 		.4byte	0xd2
 848 03b1 01       		.byte	0x1
 849 03b2 04       		.byte	0x4
 850 03b3 04       		.byte	0x4
 851 03b4 09       		.byte	0x9
 852 03b5 17       		.uleb128 0x17
 853 03b6 CD010000 		.4byte	.LASF71
 854 03ba 05       		.byte	0x5
 855 03bb 3A01     		.2byte	0x13a
 856 03bd 0D       		.byte	0xd
 857 03be D2000000 		.4byte	0xd2
 858 03c2 01       		.byte	0x1
 859 03c3 01       		.byte	0x1
 860 03c4 03       		.byte	0x3
 861 03c5 09       		.byte	0x9
 862 03c6 17       		.uleb128 0x17
 863 03c7 27080000 		.4byte	.LASF72
 864 03cb 05       		.byte	0x5
 865 03cc 3B01     		.2byte	0x13b
 866 03ce 0D       		.byte	0xd
 867 03cf D2000000 		.4byte	0xd2
 868 03d3 01       		.byte	0x1
 869 03d4 03       		.byte	0x3
 870 03d5 00       		.byte	0
 871 03d6 09       		.byte	0x9
 872 03d7 16       		.uleb128 0x16
 873 03d8 7B050000 		.4byte	.LASF73
 874 03dc 05       		.byte	0x5
 875 03dd 3C01     		.2byte	0x13c
 876 03df 0D       		.byte	0xd
 877 03e0 E6030000 		.4byte	0x3e6
 878 03e4 0A       		.byte	0xa
 879 03e5 00       		.byte	0
 880 03e6 18       		.uleb128 0x18
 881 03e7 13010000 		.4byte	0x113
 882 03eb F6030000 		.4byte	0x3f6
 883 03ef 19       		.uleb128 0x19
 884 03f0 38000000 		.4byte	0x38
 885 03f4 15       		.byte	0x15
 886 03f5 00       		.byte	0
 887 03f6 13       		.uleb128 0x13
 888 03f7 85000000 		.4byte	.LASF74
 889 03fb 05       		.byte	0x5
 890 03fc 3D01     		.2byte	0x13d
 891 03fe 05       		.byte	0x5
 892 03ff 50030000 		.4byte	0x350
 893 0403 06       		.uleb128 0x6
 894 0404 04       		.byte	0x4
 895 0405 4B030000 		.4byte	0x34b
 896 0409 06       		.uleb128 0x6
 897 040a 04       		.byte	0x4
 898 040b 2C010000 		.4byte	0x12c
 899 040f 06       		.uleb128 0x6
 900 0410 04       		.byte	0x4
ARM GAS  /var/folders/18/xss02wnj1dvbmt0zsb1nmd100000gn/T//ccDyFfZV.s 			page 17


 901 0411 25010000 		.4byte	0x125
 902 0415 1A       		.uleb128 0x1a
 903 0416 2D000000 		.4byte	.LASF75
 904 041a 9801     		.2byte	0x198
 905 041c 05       		.byte	0x5
 906 041d E301     		.2byte	0x1e3
 907 041f 12       		.byte	0x12
 908 0420 BF040000 		.4byte	0x4bf
 909 0424 16       		.uleb128 0x16
 910 0425 7F010000 		.4byte	.LASF76
 911 0429 05       		.byte	0x5
 912 042a E401     		.2byte	0x1e4
 913 042c 0E       		.byte	0xe
 914 042d 07010000 		.4byte	0x107
 915 0431 00       		.byte	0
 916 0432 16       		.uleb128 0x16
 917 0433 4C040000 		.4byte	.LASF59
 918 0437 05       		.byte	0x5
 919 0438 E501     		.2byte	0x1e5
 920 043a 0E       		.byte	0xe
 921 043b 07010000 		.4byte	0x107
 922 043f 04       		.byte	0x4
 923 0440 15       		.uleb128 0x15
 924 0441 61706900 		.ascii	"api\000"
 925 0445 05       		.byte	0x5
 926 0446 E601     		.2byte	0x1e6
 927 0448 0E       		.byte	0xe
 928 0449 07010000 		.4byte	0x107
 929 044d 08       		.byte	0x8
 930 044e 16       		.uleb128 0x16
 931 044f A9040000 		.4byte	.LASF77
 932 0453 05       		.byte	0x5
 933 0454 E701     		.2byte	0x1e7
 934 0456 0E       		.byte	0xe
 935 0457 07010000 		.4byte	0x107
 936 045b 0C       		.byte	0xc
 937 045c 16       		.uleb128 0x16
 938 045d 6F020000 		.4byte	.LASF78
 939 0461 05       		.byte	0x5
 940 0462 E801     		.2byte	0x1e8
 941 0464 0E       		.byte	0xe
 942 0465 07010000 		.4byte	0x107
 943 0469 10       		.byte	0x10
 944 046a 16       		.uleb128 0x16
 945 046b 00010000 		.4byte	.LASF79
 946 046f 05       		.byte	0x5
 947 0470 E901     		.2byte	0x1e9
 948 0472 0E       		.byte	0xe
 949 0473 07010000 		.4byte	0x107
 950 0477 14       		.byte	0x14
 951 0478 16       		.uleb128 0x16
 952 0479 7B050000 		.4byte	.LASF73
 953 047d 05       		.byte	0x5
 954 047e EA01     		.2byte	0x1ea
 955 0480 0E       		.byte	0xe
 956 0481 BF040000 		.4byte	0x4bf
 957 0485 18       		.byte	0x18
ARM GAS  /var/folders/18/xss02wnj1dvbmt0zsb1nmd100000gn/T//ccDyFfZV.s 			page 18


 958 0486 16       		.uleb128 0x16
 959 0487 41050000 		.4byte	.LASF80
 960 048b 05       		.byte	0x5
 961 048c EB01     		.2byte	0x1eb
 962 048e 0E       		.byte	0xe
 963 048f 07010000 		.4byte	0x107
 964 0493 2C       		.byte	0x2c
 965 0494 16       		.uleb128 0x16
 966 0495 4B050000 		.4byte	.LASF81
 967 0499 05       		.byte	0x5
 968 049a EC01     		.2byte	0x1ec
 969 049c 0E       		.byte	0xe
 970 049d 07010000 		.4byte	0x107
 971 04a1 30       		.byte	0x30
 972 04a2 16       		.uleb128 0x16
 973 04a3 AE020000 		.4byte	.LASF82
 974 04a7 05       		.byte	0x5
 975 04a8 ED01     		.2byte	0x1ed
 976 04aa 0E       		.byte	0xe
 977 04ab 07010000 		.4byte	0x107
 978 04af 34       		.byte	0x34
 979 04b0 16       		.uleb128 0x16
 980 04b1 39000000 		.4byte	.LASF83
 981 04b5 05       		.byte	0x5
 982 04b6 EE01     		.2byte	0x1ee
 983 04b8 12       		.byte	0x12
 984 04b9 CF040000 		.4byte	0x4cf
 985 04bd 38       		.byte	0x38
 986 04be 00       		.byte	0
 987 04bf 18       		.uleb128 0x18
 988 04c0 13010000 		.4byte	0x113
 989 04c4 CF040000 		.4byte	0x4cf
 990 04c8 19       		.uleb128 0x19
 991 04c9 38000000 		.4byte	0x38
 992 04cd 13       		.byte	0x13
 993 04ce 00       		.byte	0
 994 04cf 18       		.uleb128 0x18
 995 04d0 F6030000 		.4byte	0x3f6
 996 04d4 DF040000 		.4byte	0x4df
 997 04d8 19       		.uleb128 0x19
 998 04d9 38000000 		.4byte	0x38
 999 04dd 0A       		.byte	0xa
 1000 04de 00       		.byte	0
 1001 04df 13       		.uleb128 0x13
 1002 04e0 08010000 		.4byte	.LASF84
 1003 04e4 05       		.byte	0x5
 1004 04e5 EF01     		.2byte	0x1ef
 1005 04e7 05       		.byte	0x5
 1006 04e8 15040000 		.4byte	0x415
 1007 04ec 05       		.uleb128 0x5
 1008 04ed DF040000 		.4byte	0x4df
 1009 04f1 1B       		.uleb128 0x1b
 1010 04f2 05       		.byte	0x5
 1011 04f3 01       		.byte	0x1
 1012 04f4 59000000 		.4byte	0x59
 1013 04f8 05       		.byte	0x5
 1014 04f9 F301     		.2byte	0x1f3
ARM GAS  /var/folders/18/xss02wnj1dvbmt0zsb1nmd100000gn/T//ccDyFfZV.s 			page 19


 1015 04fb 08       		.byte	0x8
 1016 04fc 2B050000 		.4byte	0x52b
 1017 0500 08       		.uleb128 0x8
 1018 0501 F2070000 		.4byte	.LASF85
 1019 0505 00       		.byte	0
 1020 0506 1C       		.uleb128 0x1c
 1021 0507 A7010000 		.4byte	.LASF86
 1022 050b 7F       		.sleb128 -1
 1023 050c 1C       		.uleb128 0x1c
 1024 050d 57060000 		.4byte	.LASF87
 1025 0511 7E       		.sleb128 -2
 1026 0512 1C       		.uleb128 0x1c
 1027 0513 8B010000 		.4byte	.LASF88
 1028 0517 7C       		.sleb128 -4
 1029 0518 1C       		.uleb128 0x1c
 1030 0519 3A010000 		.4byte	.LASF89
 1031 051d 78       		.sleb128 -8
 1032 051e 1C       		.uleb128 0x1c
 1033 051f 37060000 		.4byte	.LASF90
 1034 0523 70       		.sleb128 -16
 1035 0524 1C       		.uleb128 0x1c
 1036 0525 00000000 		.4byte	.LASF91
 1037 0529 60       		.sleb128 -32
 1038 052a 00       		.byte	0
 1039 052b 1D       		.uleb128 0x1d
 1040 052c 2D000000 		.4byte	.LASF75
 1041 0530 06       		.byte	0x6
 1042 0531 36       		.byte	0x36
 1043 0532 1C       		.byte	0x1c
 1044 0533 EC040000 		.4byte	0x4ec
 1045 0537 1E       		.uleb128 0x1e
 1046 0538 2B050000 		.4byte	0x52b
 1047 053c 01       		.byte	0x1
 1048 053d 30       		.byte	0x30
 1049 053e 44       		.byte	0x44
 1050 053f 05       		.uleb128 0x5
 1051 0540 03       		.byte	0x3
 1052 0541 00000000 		.4byte	unit_header
 1053 0545 1F       		.uleb128 0x1f
 1054 0546 C5040000 		.4byte	.LASF93
 1055 054a 01       		.byte	0x1
 1056 054b 72       		.byte	0x72
 1057 054c 1C       		.byte	0x1c
 1058 054d 6A050000 		.4byte	0x56a
 1059 0551 20       		.uleb128 0x20
 1060 0552 A5050000 		.4byte	.LASF92
 1061 0556 01       		.byte	0x1
 1062 0557 72       		.byte	0x72
 1063 0558 34       		.byte	0x34
 1064 0559 D2000000 		.4byte	0xd2
 1065 055d 21       		.uleb128 0x21
 1066 055e 6D6F6400 		.ascii	"mod\000"
 1067 0562 01       		.byte	0x1
 1068 0563 72       		.byte	0x72
 1069 0564 42       		.byte	0x42
 1070 0565 D2000000 		.4byte	0xd2
 1071 0569 00       		.byte	0
ARM GAS  /var/folders/18/xss02wnj1dvbmt0zsb1nmd100000gn/T//ccDyFfZV.s 			page 20


 1072 056a 1F       		.uleb128 0x1f
 1073 056b 3C020000 		.4byte	.LASF94
 1074 056f 01       		.byte	0x1
 1075 0570 70       		.byte	0x70
 1076 0571 1C       		.byte	0x1c
 1077 0572 83050000 		.4byte	0x583
 1078 0576 21       		.uleb128 0x21
 1079 0577 6D6F6400 		.ascii	"mod\000"
 1080 057b 01       		.byte	0x1
 1081 057c 70       		.byte	0x70
 1082 057d 3A       		.byte	0x3a
 1083 057e D2000000 		.4byte	0xd2
 1084 0582 00       		.byte	0
 1085 0583 22       		.uleb128 0x22
 1086 0584 5F010000 		.4byte	.LASF101
 1087 0588 01       		.byte	0x1
 1088 0589 6E       		.byte	0x6e
 1089 058a 1C       		.byte	0x1c
 1090 058b 24000000 		.4byte	.LFB73
 1091 058f 02000000 		.4byte	.LFE73-.LFB73
 1092 0593 01       		.uleb128 0x1
 1093 0594 9C       		.byte	0x9c
 1094 0595 A8050000 		.4byte	0x5a8
 1095 0599 23       		.uleb128 0x23
 1096 059a 83040000 		.4byte	.LASF103
 1097 059e 01       		.byte	0x1
 1098 059f 6E       		.byte	0x6e
 1099 05a0 35       		.byte	0x35
 1100 05a1 EF000000 		.4byte	0xef
 1101 05a5 01       		.uleb128 0x1
 1102 05a6 50       		.byte	0x50
 1103 05a7 00       		.byte	0
 1104 05a8 24       		.uleb128 0x24
 1105 05a9 E4040000 		.4byte	.LASF118
 1106 05ad 01       		.byte	0x1
 1107 05ae 6C       		.byte	0x6c
 1108 05af 1C       		.byte	0x1c
 1109 05b0 22000000 		.4byte	.LFB72
 1110 05b4 02000000 		.4byte	.LFE72-.LFB72
 1111 05b8 01       		.uleb128 0x1
 1112 05b9 9C       		.byte	0x9c
 1113 05ba 25       		.uleb128 0x25
 1114 05bb 49060000 		.4byte	.LASF95
 1115 05bf 01       		.byte	0x1
 1116 05c0 6A       		.byte	0x6a
 1117 05c1 1C       		.byte	0x1c
 1118 05c2 01       		.byte	0x1
 1119 05c3 D4050000 		.4byte	0x5d4
 1120 05c7 20       		.uleb128 0x20
 1121 05c8 A5050000 		.4byte	.LASF92
 1122 05cc 01       		.byte	0x1
 1123 05cd 6A       		.byte	0x6a
 1124 05ce 32       		.byte	0x32
 1125 05cf D2000000 		.4byte	0xd2
 1126 05d3 00       		.byte	0
 1127 05d4 25       		.uleb128 0x25
 1128 05d5 B9020000 		.4byte	.LASF96
ARM GAS  /var/folders/18/xss02wnj1dvbmt0zsb1nmd100000gn/T//ccDyFfZV.s 			page 21


 1129 05d9 01       		.byte	0x1
 1130 05da 65       		.byte	0x65
 1131 05db 1C       		.byte	0x1c
 1132 05dc 01       		.byte	0x1
 1133 05dd FA050000 		.4byte	0x5fa
 1134 05e1 20       		.uleb128 0x20
 1135 05e2 A5050000 		.4byte	.LASF92
 1136 05e6 01       		.byte	0x1
 1137 05e7 65       		.byte	0x65
 1138 05e8 31       		.byte	0x31
 1139 05e9 D2000000 		.4byte	0xd2
 1140 05ed 21       		.uleb128 0x21
 1141 05ee 6D6F6400 		.ascii	"mod\000"
 1142 05f2 01       		.byte	0x1
 1143 05f3 65       		.byte	0x65
 1144 05f4 3F       		.byte	0x3f
 1145 05f5 D2000000 		.4byte	0xd2
 1146 05f9 00       		.byte	0
 1147 05fa 1F       		.uleb128 0x1f
 1148 05fb 92000000 		.4byte	.LASF97
 1149 05ff 01       		.byte	0x1
 1150 0600 63       		.byte	0x63
 1151 0601 1C       		.byte	0x1c
 1152 0602 13060000 		.4byte	0x613
 1153 0606 20       		.uleb128 0x20
 1154 0607 8C020000 		.4byte	.LASF98
 1155 060b 01       		.byte	0x1
 1156 060c 63       		.byte	0x63
 1157 060d 3B       		.byte	0x3b
 1158 060e 07010000 		.4byte	0x107
 1159 0612 00       		.byte	0
 1160 0613 25       		.uleb128 0x25
 1161 0614 77020000 		.4byte	.LASF99
 1162 0618 01       		.byte	0x1
 1163 0619 61       		.byte	0x61
 1164 061a 1C       		.byte	0x1c
 1165 061b 01       		.byte	0x1
 1166 061c 2D060000 		.4byte	0x62d
 1167 0620 20       		.uleb128 0x20
 1168 0621 0C030000 		.4byte	.LASF100
 1169 0625 01       		.byte	0x1
 1170 0626 61       		.byte	0x61
 1171 0627 34       		.byte	0x34
 1172 0628 07010000 		.4byte	0x107
 1173 062c 00       		.byte	0
 1174 062d 22       		.uleb128 0x22
 1175 062e 25010000 		.4byte	.LASF102
 1176 0632 01       		.byte	0x1
 1177 0633 5C       		.byte	0x5c
 1178 0634 1C       		.byte	0x1c
 1179 0635 18000000 		.4byte	.LFB67
 1180 0639 02000000 		.4byte	.LFE67-.LFB67
 1181 063d 01       		.uleb128 0x1
 1182 063e 9C       		.byte	0x9c
 1183 063f 5F060000 		.4byte	0x65f
 1184 0643 26       		.uleb128 0x26
 1185 0644 696400   		.ascii	"id\000"
ARM GAS  /var/folders/18/xss02wnj1dvbmt0zsb1nmd100000gn/T//ccDyFfZV.s 			page 22


 1186 0647 01       		.byte	0x1
 1187 0648 5C       		.byte	0x5c
 1188 0649 39       		.byte	0x39
 1189 064a D2000000 		.4byte	0xd2
 1190 064e 01       		.uleb128 0x1
 1191 064f 50       		.byte	0x50
 1192 0650 23       		.uleb128 0x23
 1193 0651 86020000 		.4byte	.LASF104
 1194 0655 01       		.byte	0x1
 1195 0656 5C       		.byte	0x5c
 1196 0657 45       		.byte	0x45
 1197 0658 FB000000 		.4byte	0xfb
 1198 065c 01       		.uleb128 0x1
 1199 065d 51       		.byte	0x51
 1200 065e 00       		.byte	0
 1201 065f 27       		.uleb128 0x27
 1202 0660 23020000 		.4byte	.LASF105
 1203 0664 01       		.byte	0x1
 1204 0665 56       		.byte	0x56
 1205 0666 24       		.byte	0x24
 1206 0667 1F010000 		.4byte	0x11f
 1207 066b 14000000 		.4byte	.LFB66
 1208 066f 04000000 		.4byte	.LFE66-.LFB66
 1209 0673 01       		.uleb128 0x1
 1210 0674 9C       		.byte	0x9c
 1211 0675 9B060000 		.4byte	0x69b
 1212 0679 28       		.uleb128 0x28
 1213 067a 696400   		.ascii	"id\000"
 1214 067d 01       		.byte	0x1
 1215 067e 56       		.byte	0x56
 1216 067f 45       		.byte	0x45
 1217 0680 D2000000 		.4byte	0xd2
 1218 0684 04000000 		.4byte	.LLST2
 1219 0688 00000000 		.4byte	.LVUS2
 1220 068c 23       		.uleb128 0x23
 1221 068d 86020000 		.4byte	.LASF104
 1222 0691 01       		.byte	0x1
 1223 0692 56       		.byte	0x56
 1224 0693 51       		.byte	0x51
 1225 0694 FB000000 		.4byte	0xfb
 1226 0698 01       		.uleb128 0x1
 1227 0699 51       		.byte	0x51
 1228 069a 00       		.byte	0
 1229 069b 27       		.uleb128 0x27
 1230 069c E5050000 		.4byte	.LASF106
 1231 06a0 01       		.byte	0x1
 1232 06a1 51       		.byte	0x51
 1233 06a2 1F       		.byte	0x1f
 1234 06a3 FB000000 		.4byte	0xfb
 1235 06a7 10000000 		.4byte	.LFB65
 1236 06ab 04000000 		.4byte	.LFE65-.LFB65
 1237 06af 01       		.uleb128 0x1
 1238 06b0 9C       		.byte	0x9c
 1239 06b1 C9060000 		.4byte	0x6c9
 1240 06b5 28       		.uleb128 0x28
 1241 06b6 696400   		.ascii	"id\000"
 1242 06b9 01       		.byte	0x1
ARM GAS  /var/folders/18/xss02wnj1dvbmt0zsb1nmd100000gn/T//ccDyFfZV.s 			page 23


 1243 06ba 51       		.byte	0x51
 1244 06bb 3C       		.byte	0x3c
 1245 06bc D2000000 		.4byte	0xd2
 1246 06c0 29000000 		.4byte	.LLST1
 1247 06c4 25000000 		.4byte	.LVUS1
 1248 06c8 00       		.byte	0
 1249 06c9 22       		.uleb128 0x22
 1250 06ca B0030000 		.4byte	.LASF107
 1251 06ce 01       		.byte	0x1
 1252 06cf 4B       		.byte	0x4b
 1253 06d0 1C       		.byte	0x1c
 1254 06d1 0E000000 		.4byte	.LFB64
 1255 06d5 02000000 		.4byte	.LFE64-.LFB64
 1256 06d9 01       		.uleb128 0x1
 1257 06da 9C       		.byte	0x9c
 1258 06db 09070000 		.4byte	0x709
 1259 06df 26       		.uleb128 0x26
 1260 06e0 696E00   		.ascii	"in\000"
 1261 06e3 01       		.byte	0x1
 1262 06e4 4B       		.byte	0x4b
 1263 06e5 36       		.byte	0x36
 1264 06e6 09040000 		.4byte	0x409
 1265 06ea 01       		.uleb128 0x1
 1266 06eb 50       		.byte	0x50
 1267 06ec 26       		.uleb128 0x26
 1268 06ed 6F757400 		.ascii	"out\000"
 1269 06f1 01       		.byte	0x1
 1270 06f2 4B       		.byte	0x4b
 1271 06f3 42       		.byte	0x42
 1272 06f4 0F040000 		.4byte	0x40f
 1273 06f8 01       		.uleb128 0x1
 1274 06f9 51       		.byte	0x51
 1275 06fa 23       		.uleb128 0x23
 1276 06fb A1030000 		.4byte	.LASF108
 1277 06ff 01       		.byte	0x1
 1278 0700 4B       		.byte	0x4b
 1279 0701 50       		.byte	0x50
 1280 0702 07010000 		.4byte	0x107
 1281 0706 01       		.uleb128 0x1
 1282 0707 52       		.byte	0x52
 1283 0708 00       		.byte	0
 1284 0709 29       		.uleb128 0x29
 1285 070a 00050000 		.4byte	.LASF109
 1286 070e 01       		.byte	0x1
 1287 070f 49       		.byte	0x49
 1288 0710 1C       		.byte	0x1c
 1289 0711 29       		.uleb128 0x29
 1290 0712 9D040000 		.4byte	.LASF110
 1291 0716 01       		.byte	0x1
 1292 0717 47       		.byte	0x47
 1293 0718 1C       		.byte	0x1c
 1294 0719 29       		.uleb128 0x29
 1295 071a 36050000 		.4byte	.LASF111
 1296 071e 01       		.byte	0x1
 1297 071f 45       		.byte	0x45
 1298 0720 1C       		.byte	0x1c
 1299 0721 2A       		.uleb128 0x2a
ARM GAS  /var/folders/18/xss02wnj1dvbmt0zsb1nmd100000gn/T//ccDyFfZV.s 			page 24


 1300 0722 6C030000 		.4byte	.LASF119
 1301 0726 01       		.byte	0x1
 1302 0727 43       		.byte	0x43
 1303 0728 1C       		.byte	0x1c
 1304 0729 01       		.byte	0x1
 1305 072a 27       		.uleb128 0x27
 1306 072b 02030000 		.4byte	.LASF112
 1307 072f 01       		.byte	0x1
 1308 0730 3E       		.byte	0x3e
 1309 0731 1E       		.byte	0x1e
 1310 0732 C6000000 		.4byte	0xc6
 1311 0736 00000000 		.4byte	.LFB59
 1312 073a 06000000 		.4byte	.LFE59-.LFB59
 1313 073e 01       		.uleb128 0x1
 1314 073f 9C       		.byte	0x9c
 1315 0740 59070000 		.4byte	0x759
 1316 0744 2B       		.uleb128 0x2b
 1317 0745 56080000 		.4byte	.LASF113
 1318 0749 01       		.byte	0x1
 1319 074a 3E       		.byte	0x3e
 1320 074b 44       		.byte	0x44
 1321 074c 03040000 		.4byte	0x403
 1322 0750 4E000000 		.4byte	.LLST0
 1323 0754 4A000000 		.4byte	.LVUS0
 1324 0758 00       		.byte	0
 1325 0759 2C       		.uleb128 0x2c
 1326 075a 21070000 		.4byte	0x721
 1327 075e 06000000 		.4byte	.LFB60
 1328 0762 02000000 		.4byte	.LFE60-.LFB60
 1329 0766 01       		.uleb128 0x1
 1330 0767 9C       		.byte	0x9c
 1331 0768 2D       		.uleb128 0x2d
 1332 0769 13060000 		.4byte	0x613
 1333 076d 1A000000 		.4byte	.LFB68
 1334 0771 02000000 		.4byte	.LFE68-.LFB68
 1335 0775 01       		.uleb128 0x1
 1336 0776 9C       		.byte	0x9c
 1337 0777 83070000 		.4byte	0x783
 1338 077b 2E       		.uleb128 0x2e
 1339 077c 20060000 		.4byte	0x620
 1340 0780 01       		.uleb128 0x1
 1341 0781 50       		.byte	0x50
 1342 0782 00       		.byte	0
 1343 0783 2D       		.uleb128 0x2d
 1344 0784 D4050000 		.4byte	0x5d4
 1345 0788 1E000000 		.4byte	.LFB70
 1346 078c 02000000 		.4byte	.LFE70-.LFB70
 1347 0790 01       		.uleb128 0x1
 1348 0791 9C       		.byte	0x9c
 1349 0792 A5070000 		.4byte	0x7a5
 1350 0796 2E       		.uleb128 0x2e
 1351 0797 E1050000 		.4byte	0x5e1
 1352 079b 01       		.uleb128 0x1
 1353 079c 50       		.byte	0x50
 1354 079d 2E       		.uleb128 0x2e
 1355 079e ED050000 		.4byte	0x5ed
 1356 07a2 01       		.uleb128 0x1
ARM GAS  /var/folders/18/xss02wnj1dvbmt0zsb1nmd100000gn/T//ccDyFfZV.s 			page 25


 1357 07a3 51       		.byte	0x51
 1358 07a4 00       		.byte	0
 1359 07a5 2F       		.uleb128 0x2f
 1360 07a6 BA050000 		.4byte	0x5ba
 1361 07aa 20000000 		.4byte	.LFB71
 1362 07ae 02000000 		.4byte	.LFE71-.LFB71
 1363 07b2 01       		.uleb128 0x1
 1364 07b3 9C       		.byte	0x9c
 1365 07b4 2E       		.uleb128 0x2e
 1366 07b5 C7050000 		.4byte	0x5c7
 1367 07b9 01       		.uleb128 0x1
 1368 07ba 50       		.byte	0x50
 1369 07bb 00       		.byte	0
 1370 07bc 00       		.byte	0
 1371              		.section	.debug_abbrev,"",%progbits
 1372              	.Ldebug_abbrev0:
 1373 0000 01       		.uleb128 0x1
 1374 0001 11       		.uleb128 0x11
 1375 0002 01       		.byte	0x1
 1376 0003 25       		.uleb128 0x25
 1377 0004 0E       		.uleb128 0xe
 1378 0005 13       		.uleb128 0x13
 1379 0006 0B       		.uleb128 0xb
 1380 0007 03       		.uleb128 0x3
 1381 0008 0E       		.uleb128 0xe
 1382 0009 1B       		.uleb128 0x1b
 1383 000a 0E       		.uleb128 0xe
 1384 000b 11       		.uleb128 0x11
 1385 000c 01       		.uleb128 0x1
 1386 000d 12       		.uleb128 0x12
 1387 000e 06       		.uleb128 0x6
 1388 000f 10       		.uleb128 0x10
 1389 0010 17       		.uleb128 0x17
 1390 0011 00       		.byte	0
 1391 0012 00       		.byte	0
 1392 0013 02       		.uleb128 0x2
 1393 0014 24       		.uleb128 0x24
 1394 0015 00       		.byte	0
 1395 0016 0B       		.uleb128 0xb
 1396 0017 0B       		.uleb128 0xb
 1397 0018 3E       		.uleb128 0x3e
 1398 0019 0B       		.uleb128 0xb
 1399 001a 03       		.uleb128 0x3
 1400 001b 08       		.uleb128 0x8
 1401 001c 00       		.byte	0
 1402 001d 00       		.byte	0
 1403 001e 03       		.uleb128 0x3
 1404 001f 16       		.uleb128 0x16
 1405 0020 00       		.byte	0
 1406 0021 03       		.uleb128 0x3
 1407 0022 0E       		.uleb128 0xe
 1408 0023 3A       		.uleb128 0x3a
 1409 0024 0B       		.uleb128 0xb
 1410 0025 3B       		.uleb128 0x3b
 1411 0026 0B       		.uleb128 0xb
 1412 0027 39       		.uleb128 0x39
 1413 0028 0B       		.uleb128 0xb
ARM GAS  /var/folders/18/xss02wnj1dvbmt0zsb1nmd100000gn/T//ccDyFfZV.s 			page 26


 1414 0029 49       		.uleb128 0x49
 1415 002a 13       		.uleb128 0x13
 1416 002b 00       		.byte	0
 1417 002c 00       		.byte	0
 1418 002d 04       		.uleb128 0x4
 1419 002e 24       		.uleb128 0x24
 1420 002f 00       		.byte	0
 1421 0030 0B       		.uleb128 0xb
 1422 0031 0B       		.uleb128 0xb
 1423 0032 3E       		.uleb128 0x3e
 1424 0033 0B       		.uleb128 0xb
 1425 0034 03       		.uleb128 0x3
 1426 0035 0E       		.uleb128 0xe
 1427 0036 00       		.byte	0
 1428 0037 00       		.byte	0
 1429 0038 05       		.uleb128 0x5
 1430 0039 26       		.uleb128 0x26
 1431 003a 00       		.byte	0
 1432 003b 49       		.uleb128 0x49
 1433 003c 13       		.uleb128 0x13
 1434 003d 00       		.byte	0
 1435 003e 00       		.byte	0
 1436 003f 06       		.uleb128 0x6
 1437 0040 0F       		.uleb128 0xf
 1438 0041 00       		.byte	0
 1439 0042 0B       		.uleb128 0xb
 1440 0043 0B       		.uleb128 0xb
 1441 0044 49       		.uleb128 0x49
 1442 0045 13       		.uleb128 0x13
 1443 0046 00       		.byte	0
 1444 0047 00       		.byte	0
 1445 0048 07       		.uleb128 0x7
 1446 0049 04       		.uleb128 0x4
 1447 004a 01       		.byte	0x1
 1448 004b 3E       		.uleb128 0x3e
 1449 004c 0B       		.uleb128 0xb
 1450 004d 0B       		.uleb128 0xb
 1451 004e 0B       		.uleb128 0xb
 1452 004f 49       		.uleb128 0x49
 1453 0050 13       		.uleb128 0x13
 1454 0051 3A       		.uleb128 0x3a
 1455 0052 0B       		.uleb128 0xb
 1456 0053 3B       		.uleb128 0x3b
 1457 0054 0B       		.uleb128 0xb
 1458 0055 39       		.uleb128 0x39
 1459 0056 0B       		.uleb128 0xb
 1460 0057 01       		.uleb128 0x1
 1461 0058 13       		.uleb128 0x13
 1462 0059 00       		.byte	0
 1463 005a 00       		.byte	0
 1464 005b 08       		.uleb128 0x8
 1465 005c 28       		.uleb128 0x28
 1466 005d 00       		.byte	0
 1467 005e 03       		.uleb128 0x3
 1468 005f 0E       		.uleb128 0xe
 1469 0060 1C       		.uleb128 0x1c
 1470 0061 0B       		.uleb128 0xb
ARM GAS  /var/folders/18/xss02wnj1dvbmt0zsb1nmd100000gn/T//ccDyFfZV.s 			page 27


 1471 0062 00       		.byte	0
 1472 0063 00       		.byte	0
 1473 0064 09       		.uleb128 0x9
 1474 0065 28       		.uleb128 0x28
 1475 0066 00       		.byte	0
 1476 0067 03       		.uleb128 0x3
 1477 0068 0E       		.uleb128 0xe
 1478 0069 1C       		.uleb128 0x1c
 1479 006a 05       		.uleb128 0x5
 1480 006b 00       		.byte	0
 1481 006c 00       		.byte	0
 1482 006d 0A       		.uleb128 0xa
 1483 006e 28       		.uleb128 0x28
 1484 006f 00       		.byte	0
 1485 0070 03       		.uleb128 0x3
 1486 0071 0E       		.uleb128 0xe
 1487 0072 1C       		.uleb128 0x1c
 1488 0073 06       		.uleb128 0x6
 1489 0074 00       		.byte	0
 1490 0075 00       		.byte	0
 1491 0076 0B       		.uleb128 0xb
 1492 0077 16       		.uleb128 0x16
 1493 0078 00       		.byte	0
 1494 0079 03       		.uleb128 0x3
 1495 007a 0E       		.uleb128 0xe
 1496 007b 3A       		.uleb128 0x3a
 1497 007c 0B       		.uleb128 0xb
 1498 007d 3B       		.uleb128 0x3b
 1499 007e 0B       		.uleb128 0xb
 1500 007f 39       		.uleb128 0x39
 1501 0080 0B       		.uleb128 0xb
 1502 0081 00       		.byte	0
 1503 0082 00       		.byte	0
 1504 0083 0C       		.uleb128 0xc
 1505 0084 15       		.uleb128 0x15
 1506 0085 01       		.byte	0x1
 1507 0086 27       		.uleb128 0x27
 1508 0087 19       		.uleb128 0x19
 1509 0088 49       		.uleb128 0x49
 1510 0089 13       		.uleb128 0x13
 1511 008a 01       		.uleb128 0x1
 1512 008b 13       		.uleb128 0x13
 1513 008c 00       		.byte	0
 1514 008d 00       		.byte	0
 1515 008e 0D       		.uleb128 0xd
 1516 008f 05       		.uleb128 0x5
 1517 0090 00       		.byte	0
 1518 0091 49       		.uleb128 0x49
 1519 0092 13       		.uleb128 0x13
 1520 0093 00       		.byte	0
 1521 0094 00       		.byte	0
 1522 0095 0E       		.uleb128 0xe
 1523 0096 15       		.uleb128 0x15
 1524 0097 01       		.byte	0x1
 1525 0098 27       		.uleb128 0x27
 1526 0099 19       		.uleb128 0x19
 1527 009a 01       		.uleb128 0x1
ARM GAS  /var/folders/18/xss02wnj1dvbmt0zsb1nmd100000gn/T//ccDyFfZV.s 			page 28


 1528 009b 13       		.uleb128 0x13
 1529 009c 00       		.byte	0
 1530 009d 00       		.byte	0
 1531 009e 0F       		.uleb128 0xf
 1532 009f 15       		.uleb128 0x15
 1533 00a0 00       		.byte	0
 1534 00a1 27       		.uleb128 0x27
 1535 00a2 19       		.uleb128 0x19
 1536 00a3 49       		.uleb128 0x49
 1537 00a4 13       		.uleb128 0x13
 1538 00a5 00       		.byte	0
 1539 00a6 00       		.byte	0
 1540 00a7 10       		.uleb128 0x10
 1541 00a8 13       		.uleb128 0x13
 1542 00a9 01       		.byte	0x1
 1543 00aa 03       		.uleb128 0x3
 1544 00ab 0E       		.uleb128 0xe
 1545 00ac 0B       		.uleb128 0xb
 1546 00ad 0B       		.uleb128 0xb
 1547 00ae 3A       		.uleb128 0x3a
 1548 00af 0B       		.uleb128 0xb
 1549 00b0 3B       		.uleb128 0x3b
 1550 00b1 0B       		.uleb128 0xb
 1551 00b2 39       		.uleb128 0x39
 1552 00b3 0B       		.uleb128 0xb
 1553 00b4 01       		.uleb128 0x1
 1554 00b5 13       		.uleb128 0x13
 1555 00b6 00       		.byte	0
 1556 00b7 00       		.byte	0
 1557 00b8 11       		.uleb128 0x11
 1558 00b9 0D       		.uleb128 0xd
 1559 00ba 00       		.byte	0
 1560 00bb 03       		.uleb128 0x3
 1561 00bc 0E       		.uleb128 0xe
 1562 00bd 3A       		.uleb128 0x3a
 1563 00be 0B       		.uleb128 0xb
 1564 00bf 3B       		.uleb128 0x3b
 1565 00c0 0B       		.uleb128 0xb
 1566 00c1 39       		.uleb128 0x39
 1567 00c2 0B       		.uleb128 0xb
 1568 00c3 49       		.uleb128 0x49
 1569 00c4 13       		.uleb128 0x13
 1570 00c5 38       		.uleb128 0x38
 1571 00c6 0B       		.uleb128 0xb
 1572 00c7 00       		.byte	0
 1573 00c8 00       		.byte	0
 1574 00c9 12       		.uleb128 0x12
 1575 00ca 0D       		.uleb128 0xd
 1576 00cb 00       		.byte	0
 1577 00cc 03       		.uleb128 0x3
 1578 00cd 08       		.uleb128 0x8
 1579 00ce 3A       		.uleb128 0x3a
 1580 00cf 0B       		.uleb128 0xb
 1581 00d0 3B       		.uleb128 0x3b
 1582 00d1 0B       		.uleb128 0xb
 1583 00d2 39       		.uleb128 0x39
 1584 00d3 0B       		.uleb128 0xb
ARM GAS  /var/folders/18/xss02wnj1dvbmt0zsb1nmd100000gn/T//ccDyFfZV.s 			page 29


 1585 00d4 49       		.uleb128 0x49
 1586 00d5 13       		.uleb128 0x13
 1587 00d6 38       		.uleb128 0x38
 1588 00d7 0B       		.uleb128 0xb
 1589 00d8 00       		.byte	0
 1590 00d9 00       		.byte	0
 1591 00da 13       		.uleb128 0x13
 1592 00db 16       		.uleb128 0x16
 1593 00dc 00       		.byte	0
 1594 00dd 03       		.uleb128 0x3
 1595 00de 0E       		.uleb128 0xe
 1596 00df 3A       		.uleb128 0x3a
 1597 00e0 0B       		.uleb128 0xb
 1598 00e1 3B       		.uleb128 0x3b
 1599 00e2 05       		.uleb128 0x5
 1600 00e3 39       		.uleb128 0x39
 1601 00e4 0B       		.uleb128 0xb
 1602 00e5 49       		.uleb128 0x49
 1603 00e6 13       		.uleb128 0x13
 1604 00e7 00       		.byte	0
 1605 00e8 00       		.byte	0
 1606 00e9 14       		.uleb128 0x14
 1607 00ea 13       		.uleb128 0x13
 1608 00eb 01       		.byte	0x1
 1609 00ec 03       		.uleb128 0x3
 1610 00ed 0E       		.uleb128 0xe
 1611 00ee 0B       		.uleb128 0xb
 1612 00ef 0B       		.uleb128 0xb
 1613 00f0 3A       		.uleb128 0x3a
 1614 00f1 0B       		.uleb128 0xb
 1615 00f2 3B       		.uleb128 0x3b
 1616 00f3 05       		.uleb128 0x5
 1617 00f4 39       		.uleb128 0x39
 1618 00f5 0B       		.uleb128 0xb
 1619 00f6 01       		.uleb128 0x1
 1620 00f7 13       		.uleb128 0x13
 1621 00f8 00       		.byte	0
 1622 00f9 00       		.byte	0
 1623 00fa 15       		.uleb128 0x15
 1624 00fb 0D       		.uleb128 0xd
 1625 00fc 00       		.byte	0
 1626 00fd 03       		.uleb128 0x3
 1627 00fe 08       		.uleb128 0x8
 1628 00ff 3A       		.uleb128 0x3a
 1629 0100 0B       		.uleb128 0xb
 1630 0101 3B       		.uleb128 0x3b
 1631 0102 05       		.uleb128 0x5
 1632 0103 39       		.uleb128 0x39
 1633 0104 0B       		.uleb128 0xb
 1634 0105 49       		.uleb128 0x49
 1635 0106 13       		.uleb128 0x13
 1636 0107 38       		.uleb128 0x38
 1637 0108 0B       		.uleb128 0xb
 1638 0109 00       		.byte	0
 1639 010a 00       		.byte	0
 1640 010b 16       		.uleb128 0x16
 1641 010c 0D       		.uleb128 0xd
ARM GAS  /var/folders/18/xss02wnj1dvbmt0zsb1nmd100000gn/T//ccDyFfZV.s 			page 30


 1642 010d 00       		.byte	0
 1643 010e 03       		.uleb128 0x3
 1644 010f 0E       		.uleb128 0xe
 1645 0110 3A       		.uleb128 0x3a
 1646 0111 0B       		.uleb128 0xb
 1647 0112 3B       		.uleb128 0x3b
 1648 0113 05       		.uleb128 0x5
 1649 0114 39       		.uleb128 0x39
 1650 0115 0B       		.uleb128 0xb
 1651 0116 49       		.uleb128 0x49
 1652 0117 13       		.uleb128 0x13
 1653 0118 38       		.uleb128 0x38
 1654 0119 0B       		.uleb128 0xb
 1655 011a 00       		.byte	0
 1656 011b 00       		.byte	0
 1657 011c 17       		.uleb128 0x17
 1658 011d 0D       		.uleb128 0xd
 1659 011e 00       		.byte	0
 1660 011f 03       		.uleb128 0x3
 1661 0120 0E       		.uleb128 0xe
 1662 0121 3A       		.uleb128 0x3a
 1663 0122 0B       		.uleb128 0xb
 1664 0123 3B       		.uleb128 0x3b
 1665 0124 05       		.uleb128 0x5
 1666 0125 39       		.uleb128 0x39
 1667 0126 0B       		.uleb128 0xb
 1668 0127 49       		.uleb128 0x49
 1669 0128 13       		.uleb128 0x13
 1670 0129 0B       		.uleb128 0xb
 1671 012a 0B       		.uleb128 0xb
 1672 012b 0D       		.uleb128 0xd
 1673 012c 0B       		.uleb128 0xb
 1674 012d 0C       		.uleb128 0xc
 1675 012e 0B       		.uleb128 0xb
 1676 012f 38       		.uleb128 0x38
 1677 0130 0B       		.uleb128 0xb
 1678 0131 00       		.byte	0
 1679 0132 00       		.byte	0
 1680 0133 18       		.uleb128 0x18
 1681 0134 01       		.uleb128 0x1
 1682 0135 01       		.byte	0x1
 1683 0136 49       		.uleb128 0x49
 1684 0137 13       		.uleb128 0x13
 1685 0138 01       		.uleb128 0x1
 1686 0139 13       		.uleb128 0x13
 1687 013a 00       		.byte	0
 1688 013b 00       		.byte	0
 1689 013c 19       		.uleb128 0x19
 1690 013d 21       		.uleb128 0x21
 1691 013e 00       		.byte	0
 1692 013f 49       		.uleb128 0x49
 1693 0140 13       		.uleb128 0x13
 1694 0141 2F       		.uleb128 0x2f
 1695 0142 0B       		.uleb128 0xb
 1696 0143 00       		.byte	0
 1697 0144 00       		.byte	0
 1698 0145 1A       		.uleb128 0x1a
ARM GAS  /var/folders/18/xss02wnj1dvbmt0zsb1nmd100000gn/T//ccDyFfZV.s 			page 31


 1699 0146 13       		.uleb128 0x13
 1700 0147 01       		.byte	0x1
 1701 0148 03       		.uleb128 0x3
 1702 0149 0E       		.uleb128 0xe
 1703 014a 0B       		.uleb128 0xb
 1704 014b 05       		.uleb128 0x5
 1705 014c 3A       		.uleb128 0x3a
 1706 014d 0B       		.uleb128 0xb
 1707 014e 3B       		.uleb128 0x3b
 1708 014f 05       		.uleb128 0x5
 1709 0150 39       		.uleb128 0x39
 1710 0151 0B       		.uleb128 0xb
 1711 0152 01       		.uleb128 0x1
 1712 0153 13       		.uleb128 0x13
 1713 0154 00       		.byte	0
 1714 0155 00       		.byte	0
 1715 0156 1B       		.uleb128 0x1b
 1716 0157 04       		.uleb128 0x4
 1717 0158 01       		.byte	0x1
 1718 0159 3E       		.uleb128 0x3e
 1719 015a 0B       		.uleb128 0xb
 1720 015b 0B       		.uleb128 0xb
 1721 015c 0B       		.uleb128 0xb
 1722 015d 49       		.uleb128 0x49
 1723 015e 13       		.uleb128 0x13
 1724 015f 3A       		.uleb128 0x3a
 1725 0160 0B       		.uleb128 0xb
 1726 0161 3B       		.uleb128 0x3b
 1727 0162 05       		.uleb128 0x5
 1728 0163 39       		.uleb128 0x39
 1729 0164 0B       		.uleb128 0xb
 1730 0165 01       		.uleb128 0x1
 1731 0166 13       		.uleb128 0x13
 1732 0167 00       		.byte	0
 1733 0168 00       		.byte	0
 1734 0169 1C       		.uleb128 0x1c
 1735 016a 28       		.uleb128 0x28
 1736 016b 00       		.byte	0
 1737 016c 03       		.uleb128 0x3
 1738 016d 0E       		.uleb128 0xe
 1739 016e 1C       		.uleb128 0x1c
 1740 016f 0D       		.uleb128 0xd
 1741 0170 00       		.byte	0
 1742 0171 00       		.byte	0
 1743 0172 1D       		.uleb128 0x1d
 1744 0173 34       		.uleb128 0x34
 1745 0174 00       		.byte	0
 1746 0175 03       		.uleb128 0x3
 1747 0176 0E       		.uleb128 0xe
 1748 0177 3A       		.uleb128 0x3a
 1749 0178 0B       		.uleb128 0xb
 1750 0179 3B       		.uleb128 0x3b
 1751 017a 0B       		.uleb128 0xb
 1752 017b 39       		.uleb128 0x39
 1753 017c 0B       		.uleb128 0xb
 1754 017d 49       		.uleb128 0x49
 1755 017e 13       		.uleb128 0x13
ARM GAS  /var/folders/18/xss02wnj1dvbmt0zsb1nmd100000gn/T//ccDyFfZV.s 			page 32


 1756 017f 3F       		.uleb128 0x3f
 1757 0180 19       		.uleb128 0x19
 1758 0181 3C       		.uleb128 0x3c
 1759 0182 19       		.uleb128 0x19
 1760 0183 00       		.byte	0
 1761 0184 00       		.byte	0
 1762 0185 1E       		.uleb128 0x1e
 1763 0186 34       		.uleb128 0x34
 1764 0187 00       		.byte	0
 1765 0188 47       		.uleb128 0x47
 1766 0189 13       		.uleb128 0x13
 1767 018a 3A       		.uleb128 0x3a
 1768 018b 0B       		.uleb128 0xb
 1769 018c 3B       		.uleb128 0x3b
 1770 018d 0B       		.uleb128 0xb
 1771 018e 39       		.uleb128 0x39
 1772 018f 0B       		.uleb128 0xb
 1773 0190 02       		.uleb128 0x2
 1774 0191 18       		.uleb128 0x18
 1775 0192 00       		.byte	0
 1776 0193 00       		.byte	0
 1777 0194 1F       		.uleb128 0x1f
 1778 0195 2E       		.uleb128 0x2e
 1779 0196 01       		.byte	0x1
 1780 0197 3F       		.uleb128 0x3f
 1781 0198 19       		.uleb128 0x19
 1782 0199 03       		.uleb128 0x3
 1783 019a 0E       		.uleb128 0xe
 1784 019b 3A       		.uleb128 0x3a
 1785 019c 0B       		.uleb128 0xb
 1786 019d 3B       		.uleb128 0x3b
 1787 019e 0B       		.uleb128 0xb
 1788 019f 39       		.uleb128 0x39
 1789 01a0 0B       		.uleb128 0xb
 1790 01a1 27       		.uleb128 0x27
 1791 01a2 19       		.uleb128 0x19
 1792 01a3 01       		.uleb128 0x1
 1793 01a4 13       		.uleb128 0x13
 1794 01a5 00       		.byte	0
 1795 01a6 00       		.byte	0
 1796 01a7 20       		.uleb128 0x20
 1797 01a8 05       		.uleb128 0x5
 1798 01a9 00       		.byte	0
 1799 01aa 03       		.uleb128 0x3
 1800 01ab 0E       		.uleb128 0xe
 1801 01ac 3A       		.uleb128 0x3a
 1802 01ad 0B       		.uleb128 0xb
 1803 01ae 3B       		.uleb128 0x3b
 1804 01af 0B       		.uleb128 0xb
 1805 01b0 39       		.uleb128 0x39
 1806 01b1 0B       		.uleb128 0xb
 1807 01b2 49       		.uleb128 0x49
 1808 01b3 13       		.uleb128 0x13
 1809 01b4 00       		.byte	0
 1810 01b5 00       		.byte	0
 1811 01b6 21       		.uleb128 0x21
 1812 01b7 05       		.uleb128 0x5
ARM GAS  /var/folders/18/xss02wnj1dvbmt0zsb1nmd100000gn/T//ccDyFfZV.s 			page 33


 1813 01b8 00       		.byte	0
 1814 01b9 03       		.uleb128 0x3
 1815 01ba 08       		.uleb128 0x8
 1816 01bb 3A       		.uleb128 0x3a
 1817 01bc 0B       		.uleb128 0xb
 1818 01bd 3B       		.uleb128 0x3b
 1819 01be 0B       		.uleb128 0xb
 1820 01bf 39       		.uleb128 0x39
 1821 01c0 0B       		.uleb128 0xb
 1822 01c1 49       		.uleb128 0x49
 1823 01c2 13       		.uleb128 0x13
 1824 01c3 00       		.byte	0
 1825 01c4 00       		.byte	0
 1826 01c5 22       		.uleb128 0x22
 1827 01c6 2E       		.uleb128 0x2e
 1828 01c7 01       		.byte	0x1
 1829 01c8 3F       		.uleb128 0x3f
 1830 01c9 19       		.uleb128 0x19
 1831 01ca 03       		.uleb128 0x3
 1832 01cb 0E       		.uleb128 0xe
 1833 01cc 3A       		.uleb128 0x3a
 1834 01cd 0B       		.uleb128 0xb
 1835 01ce 3B       		.uleb128 0x3b
 1836 01cf 0B       		.uleb128 0xb
 1837 01d0 39       		.uleb128 0x39
 1838 01d1 0B       		.uleb128 0xb
 1839 01d2 27       		.uleb128 0x27
 1840 01d3 19       		.uleb128 0x19
 1841 01d4 11       		.uleb128 0x11
 1842 01d5 01       		.uleb128 0x1
 1843 01d6 12       		.uleb128 0x12
 1844 01d7 06       		.uleb128 0x6
 1845 01d8 40       		.uleb128 0x40
 1846 01d9 18       		.uleb128 0x18
 1847 01da 9742     		.uleb128 0x2117
 1848 01dc 19       		.uleb128 0x19
 1849 01dd 01       		.uleb128 0x1
 1850 01de 13       		.uleb128 0x13
 1851 01df 00       		.byte	0
 1852 01e0 00       		.byte	0
 1853 01e1 23       		.uleb128 0x23
 1854 01e2 05       		.uleb128 0x5
 1855 01e3 00       		.byte	0
 1856 01e4 03       		.uleb128 0x3
 1857 01e5 0E       		.uleb128 0xe
 1858 01e6 3A       		.uleb128 0x3a
 1859 01e7 0B       		.uleb128 0xb
 1860 01e8 3B       		.uleb128 0x3b
 1861 01e9 0B       		.uleb128 0xb
 1862 01ea 39       		.uleb128 0x39
 1863 01eb 0B       		.uleb128 0xb
 1864 01ec 49       		.uleb128 0x49
 1865 01ed 13       		.uleb128 0x13
 1866 01ee 02       		.uleb128 0x2
 1867 01ef 18       		.uleb128 0x18
 1868 01f0 00       		.byte	0
 1869 01f1 00       		.byte	0
ARM GAS  /var/folders/18/xss02wnj1dvbmt0zsb1nmd100000gn/T//ccDyFfZV.s 			page 34


 1870 01f2 24       		.uleb128 0x24
 1871 01f3 2E       		.uleb128 0x2e
 1872 01f4 00       		.byte	0
 1873 01f5 3F       		.uleb128 0x3f
 1874 01f6 19       		.uleb128 0x19
 1875 01f7 03       		.uleb128 0x3
 1876 01f8 0E       		.uleb128 0xe
 1877 01f9 3A       		.uleb128 0x3a
 1878 01fa 0B       		.uleb128 0xb
 1879 01fb 3B       		.uleb128 0x3b
 1880 01fc 0B       		.uleb128 0xb
 1881 01fd 39       		.uleb128 0x39
 1882 01fe 0B       		.uleb128 0xb
 1883 01ff 27       		.uleb128 0x27
 1884 0200 19       		.uleb128 0x19
 1885 0201 11       		.uleb128 0x11
 1886 0202 01       		.uleb128 0x1
 1887 0203 12       		.uleb128 0x12
 1888 0204 06       		.uleb128 0x6
 1889 0205 40       		.uleb128 0x40
 1890 0206 18       		.uleb128 0x18
 1891 0207 9742     		.uleb128 0x2117
 1892 0209 19       		.uleb128 0x19
 1893 020a 00       		.byte	0
 1894 020b 00       		.byte	0
 1895 020c 25       		.uleb128 0x25
 1896 020d 2E       		.uleb128 0x2e
 1897 020e 01       		.byte	0x1
 1898 020f 3F       		.uleb128 0x3f
 1899 0210 19       		.uleb128 0x19
 1900 0211 03       		.uleb128 0x3
 1901 0212 0E       		.uleb128 0xe
 1902 0213 3A       		.uleb128 0x3a
 1903 0214 0B       		.uleb128 0xb
 1904 0215 3B       		.uleb128 0x3b
 1905 0216 0B       		.uleb128 0xb
 1906 0217 39       		.uleb128 0x39
 1907 0218 0B       		.uleb128 0xb
 1908 0219 27       		.uleb128 0x27
 1909 021a 19       		.uleb128 0x19
 1910 021b 20       		.uleb128 0x20
 1911 021c 0B       		.uleb128 0xb
 1912 021d 01       		.uleb128 0x1
 1913 021e 13       		.uleb128 0x13
 1914 021f 00       		.byte	0
 1915 0220 00       		.byte	0
 1916 0221 26       		.uleb128 0x26
 1917 0222 05       		.uleb128 0x5
 1918 0223 00       		.byte	0
 1919 0224 03       		.uleb128 0x3
 1920 0225 08       		.uleb128 0x8
 1921 0226 3A       		.uleb128 0x3a
 1922 0227 0B       		.uleb128 0xb
 1923 0228 3B       		.uleb128 0x3b
 1924 0229 0B       		.uleb128 0xb
 1925 022a 39       		.uleb128 0x39
 1926 022b 0B       		.uleb128 0xb
ARM GAS  /var/folders/18/xss02wnj1dvbmt0zsb1nmd100000gn/T//ccDyFfZV.s 			page 35


 1927 022c 49       		.uleb128 0x49
 1928 022d 13       		.uleb128 0x13
 1929 022e 02       		.uleb128 0x2
 1930 022f 18       		.uleb128 0x18
 1931 0230 00       		.byte	0
 1932 0231 00       		.byte	0
 1933 0232 27       		.uleb128 0x27
 1934 0233 2E       		.uleb128 0x2e
 1935 0234 01       		.byte	0x1
 1936 0235 3F       		.uleb128 0x3f
 1937 0236 19       		.uleb128 0x19
 1938 0237 03       		.uleb128 0x3
 1939 0238 0E       		.uleb128 0xe
 1940 0239 3A       		.uleb128 0x3a
 1941 023a 0B       		.uleb128 0xb
 1942 023b 3B       		.uleb128 0x3b
 1943 023c 0B       		.uleb128 0xb
 1944 023d 39       		.uleb128 0x39
 1945 023e 0B       		.uleb128 0xb
 1946 023f 27       		.uleb128 0x27
 1947 0240 19       		.uleb128 0x19
 1948 0241 49       		.uleb128 0x49
 1949 0242 13       		.uleb128 0x13
 1950 0243 11       		.uleb128 0x11
 1951 0244 01       		.uleb128 0x1
 1952 0245 12       		.uleb128 0x12
 1953 0246 06       		.uleb128 0x6
 1954 0247 40       		.uleb128 0x40
 1955 0248 18       		.uleb128 0x18
 1956 0249 9742     		.uleb128 0x2117
 1957 024b 19       		.uleb128 0x19
 1958 024c 01       		.uleb128 0x1
 1959 024d 13       		.uleb128 0x13
 1960 024e 00       		.byte	0
 1961 024f 00       		.byte	0
 1962 0250 28       		.uleb128 0x28
 1963 0251 05       		.uleb128 0x5
 1964 0252 00       		.byte	0
 1965 0253 03       		.uleb128 0x3
 1966 0254 08       		.uleb128 0x8
 1967 0255 3A       		.uleb128 0x3a
 1968 0256 0B       		.uleb128 0xb
 1969 0257 3B       		.uleb128 0x3b
 1970 0258 0B       		.uleb128 0xb
 1971 0259 39       		.uleb128 0x39
 1972 025a 0B       		.uleb128 0xb
 1973 025b 49       		.uleb128 0x49
 1974 025c 13       		.uleb128 0x13
 1975 025d 02       		.uleb128 0x2
 1976 025e 17       		.uleb128 0x17
 1977 025f B742     		.uleb128 0x2137
 1978 0261 17       		.uleb128 0x17
 1979 0262 00       		.byte	0
 1980 0263 00       		.byte	0
 1981 0264 29       		.uleb128 0x29
 1982 0265 2E       		.uleb128 0x2e
 1983 0266 00       		.byte	0
ARM GAS  /var/folders/18/xss02wnj1dvbmt0zsb1nmd100000gn/T//ccDyFfZV.s 			page 36


 1984 0267 3F       		.uleb128 0x3f
 1985 0268 19       		.uleb128 0x19
 1986 0269 03       		.uleb128 0x3
 1987 026a 0E       		.uleb128 0xe
 1988 026b 3A       		.uleb128 0x3a
 1989 026c 0B       		.uleb128 0xb
 1990 026d 3B       		.uleb128 0x3b
 1991 026e 0B       		.uleb128 0xb
 1992 026f 39       		.uleb128 0x39
 1993 0270 0B       		.uleb128 0xb
 1994 0271 00       		.byte	0
 1995 0272 00       		.byte	0
 1996 0273 2A       		.uleb128 0x2a
 1997 0274 2E       		.uleb128 0x2e
 1998 0275 00       		.byte	0
 1999 0276 3F       		.uleb128 0x3f
 2000 0277 19       		.uleb128 0x19
 2001 0278 03       		.uleb128 0x3
 2002 0279 0E       		.uleb128 0xe
 2003 027a 3A       		.uleb128 0x3a
 2004 027b 0B       		.uleb128 0xb
 2005 027c 3B       		.uleb128 0x3b
 2006 027d 0B       		.uleb128 0xb
 2007 027e 39       		.uleb128 0x39
 2008 027f 0B       		.uleb128 0xb
 2009 0280 20       		.uleb128 0x20
 2010 0281 0B       		.uleb128 0xb
 2011 0282 00       		.byte	0
 2012 0283 00       		.byte	0
 2013 0284 2B       		.uleb128 0x2b
 2014 0285 05       		.uleb128 0x5
 2015 0286 00       		.byte	0
 2016 0287 03       		.uleb128 0x3
 2017 0288 0E       		.uleb128 0xe
 2018 0289 3A       		.uleb128 0x3a
 2019 028a 0B       		.uleb128 0xb
 2020 028b 3B       		.uleb128 0x3b
 2021 028c 0B       		.uleb128 0xb
 2022 028d 39       		.uleb128 0x39
 2023 028e 0B       		.uleb128 0xb
 2024 028f 49       		.uleb128 0x49
 2025 0290 13       		.uleb128 0x13
 2026 0291 02       		.uleb128 0x2
 2027 0292 17       		.uleb128 0x17
 2028 0293 B742     		.uleb128 0x2137
 2029 0295 17       		.uleb128 0x17
 2030 0296 00       		.byte	0
 2031 0297 00       		.byte	0
 2032 0298 2C       		.uleb128 0x2c
 2033 0299 2E       		.uleb128 0x2e
 2034 029a 00       		.byte	0
 2035 029b 31       		.uleb128 0x31
 2036 029c 13       		.uleb128 0x13
 2037 029d 11       		.uleb128 0x11
 2038 029e 01       		.uleb128 0x1
 2039 029f 12       		.uleb128 0x12
 2040 02a0 06       		.uleb128 0x6
ARM GAS  /var/folders/18/xss02wnj1dvbmt0zsb1nmd100000gn/T//ccDyFfZV.s 			page 37


 2041 02a1 40       		.uleb128 0x40
 2042 02a2 18       		.uleb128 0x18
 2043 02a3 9742     		.uleb128 0x2117
 2044 02a5 19       		.uleb128 0x19
 2045 02a6 00       		.byte	0
 2046 02a7 00       		.byte	0
 2047 02a8 2D       		.uleb128 0x2d
 2048 02a9 2E       		.uleb128 0x2e
 2049 02aa 01       		.byte	0x1
 2050 02ab 31       		.uleb128 0x31
 2051 02ac 13       		.uleb128 0x13
 2052 02ad 11       		.uleb128 0x11
 2053 02ae 01       		.uleb128 0x1
 2054 02af 12       		.uleb128 0x12
 2055 02b0 06       		.uleb128 0x6
 2056 02b1 40       		.uleb128 0x40
 2057 02b2 18       		.uleb128 0x18
 2058 02b3 9742     		.uleb128 0x2117
 2059 02b5 19       		.uleb128 0x19
 2060 02b6 01       		.uleb128 0x1
 2061 02b7 13       		.uleb128 0x13
 2062 02b8 00       		.byte	0
 2063 02b9 00       		.byte	0
 2064 02ba 2E       		.uleb128 0x2e
 2065 02bb 05       		.uleb128 0x5
 2066 02bc 00       		.byte	0
 2067 02bd 31       		.uleb128 0x31
 2068 02be 13       		.uleb128 0x13
 2069 02bf 02       		.uleb128 0x2
 2070 02c0 18       		.uleb128 0x18
 2071 02c1 00       		.byte	0
 2072 02c2 00       		.byte	0
 2073 02c3 2F       		.uleb128 0x2f
 2074 02c4 2E       		.uleb128 0x2e
 2075 02c5 01       		.byte	0x1
 2076 02c6 31       		.uleb128 0x31
 2077 02c7 13       		.uleb128 0x13
 2078 02c8 11       		.uleb128 0x11
 2079 02c9 01       		.uleb128 0x1
 2080 02ca 12       		.uleb128 0x12
 2081 02cb 06       		.uleb128 0x6
 2082 02cc 40       		.uleb128 0x40
 2083 02cd 18       		.uleb128 0x18
 2084 02ce 9742     		.uleb128 0x2117
 2085 02d0 19       		.uleb128 0x19
 2086 02d1 00       		.byte	0
 2087 02d2 00       		.byte	0
 2088 02d3 00       		.byte	0
 2089              		.section	.debug_loc,"",%progbits
 2090              	.Ldebug_loc0:
 2091              	.LVUS2:
 2092 0000 00       		.uleb128 0
 2093 0001 00       		.uleb128 .LVU22
 2094 0002 00       		.uleb128 .LVU22
 2095 0003 00       		.uleb128 0
 2096              	.LLST2:
 2097 0004 14000000 		.4byte	.LVL5-.Ltext0
ARM GAS  /var/folders/18/xss02wnj1dvbmt0zsb1nmd100000gn/T//ccDyFfZV.s 			page 38


 2098 0008 16000000 		.4byte	.LVL6-.Ltext0
 2099 000c 0100     		.2byte	0x1
 2100 000e 50       		.byte	0x50
 2101 000f 16000000 		.4byte	.LVL6-.Ltext0
 2102 0013 18000000 		.4byte	.LFE66-.Ltext0
 2103 0017 0400     		.2byte	0x4
 2104 0019 F3       		.byte	0xf3
 2105 001a 01       		.uleb128 0x1
 2106 001b 50       		.byte	0x50
 2107 001c 9F       		.byte	0x9f
 2108 001d 00000000 		.4byte	0
 2109 0021 00000000 		.4byte	0
 2110              	.LVUS1:
 2111 0025 00       		.uleb128 0
 2112 0026 00       		.uleb128 .LVU16
 2113 0027 00       		.uleb128 .LVU16
 2114 0028 00       		.uleb128 0
 2115              	.LLST1:
 2116 0029 10000000 		.4byte	.LVL3-.Ltext0
 2117 002d 12000000 		.4byte	.LVL4-.Ltext0
 2118 0031 0100     		.2byte	0x1
 2119 0033 50       		.byte	0x50
 2120 0034 12000000 		.4byte	.LVL4-.Ltext0
 2121 0038 14000000 		.4byte	.LFE65-.Ltext0
 2122 003c 0400     		.2byte	0x4
 2123 003e F3       		.byte	0xf3
 2124 003f 01       		.uleb128 0x1
 2125 0040 50       		.byte	0x50
 2126 0041 9F       		.byte	0x9f
 2127 0042 00000000 		.4byte	0
 2128 0046 00000000 		.4byte	0
 2129              	.LVUS0:
 2130 004a 00       		.uleb128 0
 2131 004b 00       		.uleb128 .LVU4
 2132 004c 00       		.uleb128 .LVU4
 2133 004d 00       		.uleb128 0
 2134              	.LLST0:
 2135 004e 00000000 		.4byte	.LVL0-.Ltext0
 2136 0052 04000000 		.4byte	.LVL1-.Ltext0
 2137 0056 0100     		.2byte	0x1
 2138 0058 50       		.byte	0x50
 2139 0059 04000000 		.4byte	.LVL1-.Ltext0
 2140 005d 06000000 		.4byte	.LFE59-.Ltext0
 2141 0061 0400     		.2byte	0x4
 2142 0063 F3       		.byte	0xf3
 2143 0064 01       		.uleb128 0x1
 2144 0065 50       		.byte	0x50
 2145 0066 9F       		.byte	0x9f
 2146 0067 00000000 		.4byte	0
 2147 006b 00000000 		.4byte	0
 2148              		.section	.debug_aranges,"",%progbits
 2149 0000 1C000000 		.4byte	0x1c
 2150 0004 0200     		.2byte	0x2
 2151 0006 00000000 		.4byte	.Ldebug_info0
 2152 000a 04       		.byte	0x4
 2153 000b 00       		.byte	0
 2154 000c 0000     		.2byte	0
ARM GAS  /var/folders/18/xss02wnj1dvbmt0zsb1nmd100000gn/T//ccDyFfZV.s 			page 39


 2155 000e 0000     		.2byte	0
 2156 0010 00000000 		.4byte	.Ltext0
 2157 0014 2A000000 		.4byte	.Letext0-.Ltext0
 2158 0018 00000000 		.4byte	0
 2159 001c 00000000 		.4byte	0
 2160              		.section	.debug_line,"",%progbits
 2161              	.Ldebug_line0:
 2162 0000 A1020000 		.section	.debug_str,"MS",%progbits,1
 2162      0300CE01 
 2162      00000201 
 2162      FB0E0D00 
 2162      01010101 
 2163              	.LASF91:
 2164 0000 6B5F756E 		.ascii	"k_unit_err_undef\000"
 2164      69745F65 
 2164      72725F75 
 2164      6E646566 
 2164      00
 2165              	.LASF50:
 2166 0011 756E6974 		.ascii	"unit_runtime_sdram_free_ptr\000"
 2166      5F72756E 
 2166      74696D65 
 2166      5F736472 
 2166      616D5F66 
 2167              	.LASF75:
 2168 002d 756E6974 		.ascii	"unit_header\000"
 2168      5F686561 
 2168      64657200 
 2169              	.LASF83:
 2170 0039 70617261 		.ascii	"params\000"
 2170      6D7300
 2171              	.LASF115:
 2172 0040 2F557365 		.ascii	"/Users/majid/repos/logue-sdk/platform/nts-1_mkii/co"
 2172      72732F6D 
 2172      616A6964 
 2172      2F726570 
 2172      6F732F6C 
 2173 0073 6D6D6F6E 		.ascii	"mmon/_unit_base.c\000"
 2173      2F5F756E 
 2173      69745F62 
 2173      6173652E 
 2173      6300
 2174              	.LASF74:
 2175 0085 756E6974 		.ascii	"unit_param_t\000"
 2175      5F706172 
 2175      616D5F74 
 2175      00
 2176              	.LASF97:
 2177 0092 756E6974 		.ascii	"unit_tempo_4ppqn_tick\000"
 2177      5F74656D 
 2177      706F5F34 
 2177      7070716E 
 2177      5F746963 
 2178              	.LASF61:
 2179 00a8 6672616D 		.ascii	"frames_per_buffer\000"
 2179      65735F70 
 2179      65725F62 
ARM GAS  /var/folders/18/xss02wnj1dvbmt0zsb1nmd100000gn/T//ccDyFfZV.s 			page 40


 2179      75666665 
 2179      7200
 2180              	.LASF117:
 2181 00ba 756E6974 		.ascii	"unit_runtime_base_context_t\000"
 2181      5F72756E 
 2181      74696D65 
 2181      5F626173 
 2181      655F636F 
 2182              	.LASF51:
 2183 00d6 756E6974 		.ascii	"unit_runtime_sdram_avail_ptr\000"
 2183      5F72756E 
 2183      74696D65 
 2183      5F736472 
 2183      616D5F61 
 2184              	.LASF0:
 2185 00f3 756E7369 		.ascii	"unsigned int\000"
 2185      676E6564 
 2185      20696E74 
 2185      00
 2186              	.LASF79:
 2187 0100 76657273 		.ascii	"version\000"
 2187      696F6E00 
 2188              	.LASF84:
 2189 0108 756E6974 		.ascii	"unit_header_t\000"
 2189      5F686561 
 2189      6465725F 
 2189      7400
 2190              	.LASF70:
 2191 0116 66726163 		.ascii	"frac\000"
 2191      00
 2192              	.LASF12:
 2193 011b 5F5F696E 		.ascii	"__int32_t\000"
 2193      7433325F 
 2193      7400
 2194              	.LASF102:
 2195 0125 756E6974 		.ascii	"unit_set_param_value\000"
 2195      5F736574 
 2195      5F706172 
 2195      616D5F76 
 2195      616C7565 
 2196              	.LASF89:
 2197 013a 6B5F756E 		.ascii	"k_unit_err_geometry\000"
 2197      69745F65 
 2197      72725F67 
 2197      656F6D65 
 2197      74727900 
 2198              	.LASF46:
 2199 014e 6B5F756E 		.ascii	"k_unit_api_1_0_0\000"
 2199      69745F61 
 2199      70695F31 
 2199      5F305F30 
 2199      00
 2200              	.LASF101:
 2201 015f 756E6974 		.ascii	"unit_pitch_bend\000"
 2201      5F706974 
 2201      63685F62 
 2201      656E6400 
ARM GAS  /var/folders/18/xss02wnj1dvbmt0zsb1nmd100000gn/T//ccDyFfZV.s 			page 41


 2202              	.LASF22:
 2203 016f 75696E74 		.ascii	"uint32_t\000"
 2203      33325F74 
 2203      00
 2204              	.LASF17:
 2205 0178 696E7438 		.ascii	"int8_t\000"
 2205      5F7400
 2206              	.LASF76:
 2207 017f 68656164 		.ascii	"header_size\000"
 2207      65725F73 
 2207      697A6500 
 2208              	.LASF88:
 2209 018b 6B5F756E 		.ascii	"k_unit_err_samplerate\000"
 2209      69745F65 
 2209      72725F73 
 2209      616D706C 
 2209      65726174 
 2210              	.LASF24:
 2211 01a1 666C6F61 		.ascii	"float\000"
 2211      7400
 2212              	.LASF86:
 2213 01a7 6B5F756E 		.ascii	"k_unit_err_target\000"
 2213      69745F65 
 2213      72725F74 
 2213      61726765 
 2213      7400
 2214              	.LASF27:
 2215 01b9 6B5F756E 		.ascii	"k_unit_module_modfx\000"
 2215      69745F6D 
 2215      6F64756C 
 2215      655F6D6F 
 2215      64667800 
 2216              	.LASF71:
 2217 01cd 66726163 		.ascii	"frac_mode\000"
 2217      5F6D6F64 
 2217      6500
 2218              	.LASF36:
 2219 01d7 6B5F756E 		.ascii	"k_unit_target_nutektdigital_modfx\000"
 2219      69745F74 
 2219      61726765 
 2219      745F6E75 
 2219      74656B74 
 2220              	.LASF19:
 2221 01f9 696E7431 		.ascii	"int16_t\000"
 2221      365F7400 
 2222              	.LASF16:
 2223 0201 6C6F6E67 		.ascii	"long long unsigned int\000"
 2223      206C6F6E 
 2223      6720756E 
 2223      7369676E 
 2223      65642069 
 2224              	.LASF10:
 2225 0218 5F5F7569 		.ascii	"__uint16_t\000"
 2225      6E743136 
 2225      5F7400
 2226              	.LASF105:
 2227 0223 756E6974 		.ascii	"unit_get_param_str_value\000"
ARM GAS  /var/folders/18/xss02wnj1dvbmt0zsb1nmd100000gn/T//ccDyFfZV.s 			page 42


 2227      5F676574 
 2227      5F706172 
 2227      616D5F73 
 2227      74725F76 
 2228              	.LASF94:
 2229 023c 756E6974 		.ascii	"unit_channel_pressure\000"
 2229      5F636861 
 2229      6E6E656C 
 2229      5F707265 
 2229      73737572 
 2230              	.LASF49:
 2231 0252 756E6974 		.ascii	"unit_runtime_sdram_alloc_ptr\000"
 2231      5F72756E 
 2231      74696D65 
 2231      5F736472 
 2231      616D5F61 
 2232              	.LASF78:
 2233 026f 756E6974 		.ascii	"unit_id\000"
 2233      5F696400 
 2234              	.LASF99:
 2235 0277 756E6974 		.ascii	"unit_set_tempo\000"
 2235      5F736574 
 2235      5F74656D 
 2235      706F00
 2236              	.LASF104:
 2237 0286 76616C75 		.ascii	"value\000"
 2237      6500
 2238              	.LASF98:
 2239 028c 636F756E 		.ascii	"counter\000"
 2239      74657200 
 2240              	.LASF3:
 2241 0294 73697A65 		.ascii	"size_t\000"
 2241      5F7400
 2242              	.LASF57:
 2243 029b 756E6974 		.ascii	"unit_runtime_hooks\000"
 2243      5F72756E 
 2243      74696D65 
 2243      5F686F6F 
 2243      6B7300
 2244              	.LASF82:
 2245 02ae 6E756D5F 		.ascii	"num_params\000"
 2245      70617261 
 2245      6D7300
 2246              	.LASF96:
 2247 02b9 756E6974 		.ascii	"unit_note_on\000"
 2247      5F6E6F74 
 2247      655F6F6E 
 2247      00
 2248              	.LASF41:
 2249 02c6 6B5F756E 		.ascii	"k_unit_target_nts1_mkii_global\000"
 2249      69745F74 
 2249      61726765 
 2249      745F6E74 
 2249      73315F6D 
 2250              	.LASF54:
 2251 02e5 73647261 		.ascii	"sdram_free\000"
 2251      6D5F6672 
ARM GAS  /var/folders/18/xss02wnj1dvbmt0zsb1nmd100000gn/T//ccDyFfZV.s 			page 43


 2251      656500
 2252              	.LASF30:
 2253 02f0 6B5F756E 		.ascii	"k_unit_module_osc\000"
 2253      69745F6D 
 2253      6F64756C 
 2253      655F6F73 
 2253      6300
 2254              	.LASF112:
 2255 0302 756E6974 		.ascii	"unit_init\000"
 2255      5F696E69 
 2255      7400
 2256              	.LASF100:
 2257 030c 74656D70 		.ascii	"tempo\000"
 2257      6F00
 2258              	.LASF58:
 2259 0312 756E6974 		.ascii	"unit_runtime_desc\000"
 2259      5F72756E 
 2259      74696D65 
 2259      5F646573 
 2259      6300
 2260              	.LASF56:
 2261 0324 756E6974 		.ascii	"unit_runtime_hooks_t\000"
 2261      5F72756E 
 2261      74696D65 
 2261      5F686F6F 
 2261      6B735F74 
 2262              	.LASF43:
 2263 0339 6B5F756E 		.ascii	"k_unit_target_nts1_mkii_delfx\000"
 2263      69745F74 
 2263      61726765 
 2263      745F6E74 
 2263      73315F6D 
 2264              	.LASF26:
 2265 0357 6B5F756E 		.ascii	"k_unit_module_global\000"
 2265      69745F6D 
 2265      6F64756C 
 2265      655F676C 
 2265      6F62616C 
 2266              	.LASF119:
 2267 036c 756E6974 		.ascii	"unit_teardown\000"
 2267      5F746561 
 2267      72646F77 
 2267      6E00
 2268              	.LASF52:
 2269 037a 72756E74 		.ascii	"runtime_context\000"
 2269      696D655F 
 2269      636F6E74 
 2269      65787400 
 2270              	.LASF23:
 2271 038a 63686172 		.ascii	"char\000"
 2271      00
 2272              	.LASF67:
 2273 038f 63656E74 		.ascii	"center\000"
 2273      657200
 2274              	.LASF66:
 2275 0396 756E6974 		.ascii	"unit_param\000"
 2275      5F706172 
ARM GAS  /var/folders/18/xss02wnj1dvbmt0zsb1nmd100000gn/T//ccDyFfZV.s 			page 44


 2275      616D00
 2276              	.LASF108:
 2277 03a1 6672616D 		.ascii	"frames\000"
 2277      657300
 2278              	.LASF18:
 2279 03a8 75696E74 		.ascii	"uint8_t\000"
 2279      385F7400 
 2280              	.LASF107:
 2281 03b0 756E6974 		.ascii	"unit_render\000"
 2281      5F72656E 
 2281      64657200 
 2282              	.LASF44:
 2283 03bc 6B5F756E 		.ascii	"k_unit_target_nts1_mkii_revfx\000"
 2283      69745F74 
 2283      61726765 
 2283      745F6E74 
 2283      73315F6D 
 2284              	.LASF1:
 2285 03da 6C6F6E67 		.ascii	"long long int\000"
 2285      206C6F6E 
 2285      6720696E 
 2285      7400
 2286              	.LASF116:
 2287 03e8 2F557365 		.ascii	"/Users/majid/repos/NTS-1_Binaries/Lyre-1-mkii\000"
 2287      72732F6D 
 2287      616A6964 
 2287      2F726570 
 2287      6F732F4E 
 2288              	.LASF47:
 2289 0416 6B5F756E 		.ascii	"k_unit_api_1_1_0\000"
 2289      69745F61 
 2289      70695F31 
 2289      5F315F30 
 2289      00
 2290              	.LASF63:
 2291 0427 6F757470 		.ascii	"output_channels\000"
 2291      75745F63 
 2291      68616E6E 
 2291      656C7300 
 2292              	.LASF60:
 2293 0437 73616D70 		.ascii	"samplerate\000"
 2293      6C657261 
 2293      746500
 2294              	.LASF8:
 2295 0442 5F5F696E 		.ascii	"__int16_t\000"
 2295      7431365F 
 2295      7400
 2296              	.LASF59:
 2297 044c 74617267 		.ascii	"target\000"
 2297      657400
 2298              	.LASF65:
 2299 0453 756E6974 		.ascii	"unit_runtime_desc_t\000"
 2299      5F72756E 
 2299      74696D65 
 2299      5F646573 
 2299      635F7400 
 2300              	.LASF34:
ARM GAS  /var/folders/18/xss02wnj1dvbmt0zsb1nmd100000gn/T//ccDyFfZV.s 			page 45


 2301 0467 6B5F756E 		.ascii	"k_unit_target_nutektdigital\000"
 2301      69745F74 
 2301      61726765 
 2301      745F6E75 
 2301      74656B74 
 2302              	.LASF103:
 2303 0483 62656E64 		.ascii	"bend\000"
 2303      00
 2304              	.LASF53:
 2305 0488 73647261 		.ascii	"sdram_alloc\000"
 2305      6D5F616C 
 2305      6C6F6300 
 2306              	.LASF4:
 2307 0494 5F5F696E 		.ascii	"__int8_t\000"
 2307      74385F74 
 2307      00
 2308              	.LASF110:
 2309 049d 756E6974 		.ascii	"unit_resume\000"
 2309      5F726573 
 2309      756D6500 
 2310              	.LASF77:
 2311 04a9 6465765F 		.ascii	"dev_id\000"
 2311      696400
 2312              	.LASF2:
 2313 04b0 6C6F6E67 		.ascii	"long double\000"
 2313      20646F75 
 2313      626C6500 
 2314              	.LASF20:
 2315 04bc 75696E74 		.ascii	"uint16_t\000"
 2315      31365F74 
 2315      00
 2316              	.LASF93:
 2317 04c5 756E6974 		.ascii	"unit_aftertouch\000"
 2317      5F616674 
 2317      6572746F 
 2317      75636800 
 2318              	.LASF62:
 2319 04d5 696E7075 		.ascii	"input_channels\000"
 2319      745F6368 
 2319      616E6E65 
 2319      6C7300
 2320              	.LASF118:
 2321 04e4 756E6974 		.ascii	"unit_all_note_off\000"
 2321      5F616C6C 
 2321      5F6E6F74 
 2321      655F6F66 
 2321      6600
 2322              	.LASF9:
 2323 04f6 73686F72 		.ascii	"short int\000"
 2323      7420696E 
 2323      7400
 2324              	.LASF109:
 2325 0500 756E6974 		.ascii	"unit_suspend\000"
 2325      5F737573 
 2325      70656E64 
 2325      00
 2326              	.LASF13:
ARM GAS  /var/folders/18/xss02wnj1dvbmt0zsb1nmd100000gn/T//ccDyFfZV.s 			page 46


 2327 050d 6C6F6E67 		.ascii	"long int\000"
 2327      20696E74 
 2327      00
 2328              	.LASF39:
 2329 0516 6B5F756E 		.ascii	"k_unit_target_nutektdigital_osc\000"
 2329      69745F74 
 2329      61726765 
 2329      745F6E75 
 2329      74656B74 
 2330              	.LASF111:
 2331 0536 756E6974 		.ascii	"unit_reset\000"
 2331      5F726573 
 2331      657400
 2332              	.LASF80:
 2333 0541 72657365 		.ascii	"reserved0\000"
 2333      72766564 
 2333      3000
 2334              	.LASF81:
 2335 054b 72657365 		.ascii	"reserved1\000"
 2335      72766564 
 2335      3100
 2336              	.LASF6:
 2337 0555 5F5F7569 		.ascii	"__uint8_t\000"
 2337      6E74385F 
 2337      7400
 2338              	.LASF45:
 2339 055f 6B5F756E 		.ascii	"k_unit_target_nts1_mkii_osc\000"
 2339      69745F74 
 2339      61726765 
 2339      745F6E74 
 2339      73315F6D 
 2340              	.LASF73:
 2341 057b 6E616D65 		.ascii	"name\000"
 2341      00
 2342              	.LASF28:
 2343 0580 6B5F756E 		.ascii	"k_unit_module_delfx\000"
 2343      69745F6D 
 2343      6F64756C 
 2343      655F6465 
 2343      6C667800 
 2344              	.LASF48:
 2345 0594 6B5F756E 		.ascii	"k_unit_api_2_0_0\000"
 2345      69745F61 
 2345      70695F32 
 2345      5F305F30 
 2345      00
 2346              	.LASF92:
 2347 05a5 6E6F7465 		.ascii	"note\000"
 2347      00
 2348              	.LASF31:
 2349 05aa 6B5F756E 		.ascii	"k_unit_module_synth\000"
 2349      69745F6D 
 2349      6F64756C 
 2349      655F7379 
 2349      6E746800 
 2350              	.LASF37:
 2351 05be 6B5F756E 		.ascii	"k_unit_target_nutektdigital_delfx\000"
ARM GAS  /var/folders/18/xss02wnj1dvbmt0zsb1nmd100000gn/T//ccDyFfZV.s 			page 47


 2351      69745F74 
 2351      61726765 
 2351      745F6E75 
 2351      74656B74 
 2352              	.LASF68:
 2353 05e0 696E6974 		.ascii	"init\000"
 2353      00
 2354              	.LASF106:
 2355 05e5 756E6974 		.ascii	"unit_get_param_value\000"
 2355      5F676574 
 2355      5F706172 
 2355      616D5F76 
 2355      616C7565 
 2356              	.LASF35:
 2357 05fa 6B5F756E 		.ascii	"k_unit_target_nutektdigital_global\000"
 2357      69745F74 
 2357      61726765 
 2357      745F6E75 
 2357      74656B74 
 2358              	.LASF15:
 2359 061d 6C6F6E67 		.ascii	"long unsigned int\000"
 2359      20756E73 
 2359      69676E65 
 2359      6420696E 
 2359      7400
 2360              	.LASF21:
 2361 062f 696E7433 		.ascii	"int32_t\000"
 2361      325F7400 
 2362              	.LASF90:
 2363 0637 6B5F756E 		.ascii	"k_unit_err_memory\000"
 2363      69745F65 
 2363      72725F6D 
 2363      656D6F72 
 2363      7900
 2364              	.LASF95:
 2365 0649 756E6974 		.ascii	"unit_note_off\000"
 2365      5F6E6F74 
 2365      655F6F66 
 2365      6600
 2366              	.LASF87:
 2367 0657 6B5F756E 		.ascii	"k_unit_err_api_version\000"
 2367      69745F65 
 2367      72725F61 
 2367      70695F76 
 2367      65727369 
 2368              	.LASF69:
 2369 066e 74797065 		.ascii	"type\000"
 2369      00
 2370              	.LASF7:
 2371 0673 756E7369 		.ascii	"unsigned char\000"
 2371      676E6564 
 2371      20636861 
 2371      7200
 2372              	.LASF14:
 2373 0681 5F5F7569 		.ascii	"__uint32_t\000"
 2373      6E743332 
 2373      5F7400
ARM GAS  /var/folders/18/xss02wnj1dvbmt0zsb1nmd100000gn/T//ccDyFfZV.s 			page 48


 2374              	.LASF40:
 2375 068c 6B5F756E 		.ascii	"k_unit_target_nts1_mkii\000"
 2375      69745F74 
 2375      61726765 
 2375      745F6E74 
 2375      73315F6D 
 2376              	.LASF29:
 2377 06a4 6B5F756E 		.ascii	"k_unit_module_revfx\000"
 2377      69745F6D 
 2377      6F64756C 
 2377      655F7265 
 2377      76667800 
 2378              	.LASF114:
 2379 06b8 474E5520 		.ascii	"GNU C11 10.3.1 20210824 (release) -mcpu=cortex-m7 -"
 2379      43313120 
 2379      31302E33 
 2379      2E312032 
 2379      30323130 
 2380 06eb 6D746875 		.ascii	"mthumb -mno-thumb-interwork -mlittle-endian -mfloat"
 2380      6D62202D 
 2380      6D6E6F2D 
 2380      7468756D 
 2380      622D696E 
 2381 071e 2D616269 		.ascii	"-abi=hard -mfpu=fpv4-sp-d16 -march=armv7e-m+fp -g -"
 2381      3D686172 
 2381      64202D6D 
 2381      6670753D 
 2381      66707634 
 2382 0751 4F73202D 		.ascii	"Os -std=c11 -fsingle-precision-constant -fcheck-new"
 2382      7374643D 
 2382      63313120 
 2382      2D667369 
 2382      6E676C65 
 2383 0784 202D6650 		.ascii	" -fPIC -fno-exceptions\000"
 2383      4943202D 
 2383      666E6F2D 
 2383      65786365 
 2383      7074696F 
 2384              	.LASF42:
 2385 079b 6B5F756E 		.ascii	"k_unit_target_nts1_mkii_modfx\000"
 2385      69745F74 
 2385      61726765 
 2385      745F6E74 
 2385      73315F6D 
 2386              	.LASF38:
 2387 07b9 6B5F756E 		.ascii	"k_unit_target_nutektdigital_revfx\000"
 2387      69745F74 
 2387      61726765 
 2387      745F6E75 
 2387      74656B74 
 2388              	.LASF32:
 2389 07db 6B5F756E 		.ascii	"k_unit_module_masterfx\000"
 2389      69745F6D 
 2389      6F64756C 
 2389      655F6D61 
 2389      73746572 
 2390              	.LASF85:
ARM GAS  /var/folders/18/xss02wnj1dvbmt0zsb1nmd100000gn/T//ccDyFfZV.s 			page 49


 2391 07f2 6B5F756E 		.ascii	"k_unit_err_none\000"
 2391      69745F65 
 2391      72725F6E 
 2391      6F6E6500 
 2392              	.LASF64:
 2393 0802 686F6F6B 		.ascii	"hooks\000"
 2393      7300
 2394              	.LASF5:
 2395 0808 7369676E 		.ascii	"signed char\000"
 2395      65642063 
 2395      68617200 
 2396              	.LASF11:
 2397 0814 73686F72 		.ascii	"short unsigned int\000"
 2397      7420756E 
 2397      7369676E 
 2397      65642069 
 2397      6E7400
 2398              	.LASF72:
 2399 0827 72657365 		.ascii	"reserved\000"
 2399      72766564 
 2399      00
 2400              	.LASF25:
 2401 0830 646F7562 		.ascii	"double\000"
 2401      6C6500
 2402              	.LASF33:
 2403 0837 6B5F6E75 		.ascii	"k_num_unit_modules\000"
 2403      6D5F756E 
 2403      69745F6D 
 2403      6F64756C 
 2403      657300
 2404              	.LASF55:
 2405 084a 73647261 		.ascii	"sdram_avail\000"
 2405      6D5F6176 
 2405      61696C00 
 2406              	.LASF113:
 2407 0856 64657363 		.ascii	"desc\000"
 2407      00
 2408              		.ident	"GCC: (GNU Arm Embedded Toolchain 10.3-2021.10) 10.3.1 20210824 (release)"
ARM GAS  /var/folders/18/xss02wnj1dvbmt0zsb1nmd100000gn/T//ccDyFfZV.s 			page 50


DEFINED SYMBOLS
                            *ABS*:0000000000000000 _unit_base.c
/var/folders/18/xss02wnj1dvbmt0zsb1nmd100000gn/T//ccDyFfZV.s:19     .text:0000000000000000 $t
/var/folders/18/xss02wnj1dvbmt0zsb1nmd100000gn/T//ccDyFfZV.s:25     .text:0000000000000000 unit_init
/var/folders/18/xss02wnj1dvbmt0zsb1nmd100000gn/T//ccDyFfZV.s:50     .text:0000000000000006 unit_teardown
/var/folders/18/xss02wnj1dvbmt0zsb1nmd100000gn/T//ccDyFfZV.s:68     .text:0000000000000008 unit_reset
/var/folders/18/xss02wnj1dvbmt0zsb1nmd100000gn/T//ccDyFfZV.s:84     .text:000000000000000a unit_resume
/var/folders/18/xss02wnj1dvbmt0zsb1nmd100000gn/T//ccDyFfZV.s:100    .text:000000000000000c unit_suspend
/var/folders/18/xss02wnj1dvbmt0zsb1nmd100000gn/T//ccDyFfZV.s:116    .text:000000000000000e unit_render
/var/folders/18/xss02wnj1dvbmt0zsb1nmd100000gn/T//ccDyFfZV.s:138    .text:0000000000000010 unit_get_param_value
/var/folders/18/xss02wnj1dvbmt0zsb1nmd100000gn/T//ccDyFfZV.s:162    .text:0000000000000014 unit_get_param_str_value
/var/folders/18/xss02wnj1dvbmt0zsb1nmd100000gn/T//ccDyFfZV.s:187    .text:0000000000000018 unit_set_param_value
/var/folders/18/xss02wnj1dvbmt0zsb1nmd100000gn/T//ccDyFfZV.s:208    .text:000000000000001a unit_set_tempo
/var/folders/18/xss02wnj1dvbmt0zsb1nmd100000gn/T//ccDyFfZV.s:228    .text:000000000000001c unit_tempo_4ppqn_tick
/var/folders/18/xss02wnj1dvbmt0zsb1nmd100000gn/T//ccDyFfZV.s:244    .text:000000000000001e unit_note_on
/var/folders/18/xss02wnj1dvbmt0zsb1nmd100000gn/T//ccDyFfZV.s:265    .text:0000000000000020 unit_note_off
/var/folders/18/xss02wnj1dvbmt0zsb1nmd100000gn/T//ccDyFfZV.s:285    .text:0000000000000022 unit_all_note_off
/var/folders/18/xss02wnj1dvbmt0zsb1nmd100000gn/T//ccDyFfZV.s:303    .text:0000000000000024 unit_pitch_bend
/var/folders/18/xss02wnj1dvbmt0zsb1nmd100000gn/T//ccDyFfZV.s:323    .text:0000000000000026 unit_channel_pressure
/var/folders/18/xss02wnj1dvbmt0zsb1nmd100000gn/T//ccDyFfZV.s:339    .text:0000000000000028 unit_aftertouch
/var/folders/18/xss02wnj1dvbmt0zsb1nmd100000gn/T//ccDyFfZV.s:353    .unit_header:0000000000000000 unit_header
/var/folders/18/xss02wnj1dvbmt0zsb1nmd100000gn/T//ccDyFfZV.s:361    .unit_header:0000000000000022 $d

NO UNDEFINED SYMBOLS
