ARM GAS  /var/folders/18/xss02wnj1dvbmt0zsb1nmd100000gn/T//ccMZeQuq.s 			page 1


   1              		.cpu cortex-m7
   2              		.arch armv7e-m
   3              		.fpu fpv4-sp-d16
   4              		.eabi_attribute 27, 1
   5              		.eabi_attribute 28, 1
   6              		.eabi_attribute 20, 1
   7              		.eabi_attribute 21, 1
   8              		.eabi_attribute 23, 3
   9              		.eabi_attribute 24, 1
  10              		.eabi_attribute 25, 1
  11              		.eabi_attribute 26, 1
  12              		.eabi_attribute 30, 4
  13              		.eabi_attribute 34, 1
  14              		.eabi_attribute 18, 4
  15              		.file	"unit.cc"
  16              		.text
  17              	.Ltext0:
  18              		.cfi_sections	.debug_frame
  19              		.align	1
  20              		.syntax unified
  21              		.thumb
  22              		.thumb_func
  23              		.type	_ZN12_GLOBAL__N_118make_legacy_paramsEv, %function
  24              	_ZN12_GLOBAL__N_118make_legacy_paramsEv:
  25              	.LVL0:
  26              	.LFB465:
  27              		.file 1 "/Users/majid/repos/NTS-1_Binaries/Lyre-1-mkii/src/unit.cc"
  28              		.loc 1 55 39 view -0
  29              		.cfi_startproc
  30              		@ args = 0, pretend = 0, frame = 0
  31              		@ frame_needed = 0, uses_anonymous_args = 0
  32              		.loc 1 56 3 view .LVU1
  33              		.loc 1 55 39 is_stmt 0 view .LVU2
  34 0000 10B5     		push	{r4, lr}
  35              		.cfi_def_cfa_offset 8
  36              		.cfi_offset 4, -8
  37              		.cfi_offset 14, -4
  38              		.loc 1 56 20 view .LVU3
  39 0002 1022     		movs	r2, #16
  40 0004 0021     		movs	r1, #0
  41              		.loc 1 55 39 view .LVU4
  42 0006 0446     		mov	r4, r0
  43              		.loc 1 56 20 view .LVU5
  44 0008 FFF7FEFF 		bl	memset(PLT)
  45              	.LVL1:
  46              		.loc 1 57 3 is_stmt 1 view .LVU6
  47              		.loc 1 57 7 is_stmt 0 view .LVU7
  48 000c 054B     		ldr	r3, .L6
  49              	.LPIC0:
  50 000e 7B44     		add	r3, pc
  51 0010 1B68     		ldr	r3, [r3]
  52              		.loc 1 57 3 view .LVU8
  53 0012 2BB1     		cbz	r3, .L1
  54              		.loc 1 58 5 is_stmt 1 view .LVU9
  55              		.loc 1 59 5 view .LVU10
  56              		.loc 1 60 5 view .LVU11
  57              		.loc 1 61 5 view .LVU12
ARM GAS  /var/folders/18/xss02wnj1dvbmt0zsb1nmd100000gn/T//ccMZeQuq.s 			page 2


  58              		.loc 1 61 41 is_stmt 0 view .LVU13
  59 0014 1A89     		ldrh	r2, [r3, #8]
  60              		.loc 1 58 22 view .LVU14
  61 0016 1968     		ldr	r1, [r3]
  62              		.loc 1 59 18 view .LVU15
  63 0018 5B68     		ldr	r3, [r3, #4]
  64              		.loc 1 58 22 view .LVU16
  65 001a 2160     		str	r1, [r4]
  66              		.loc 1 59 18 view .LVU17
  67 001c 6360     		str	r3, [r4, #4]
  68              		.loc 1 61 22 view .LVU18
  69 001e 2281     		strh	r2, [r4, #8]	@ movhi
  70              		.loc 1 63 3 is_stmt 1 view .LVU19
  71              	.L1:
  72              		.loc 1 64 1 is_stmt 0 view .LVU20
  73 0020 2046     		mov	r0, r4
  74 0022 10BD     		pop	{r4, pc}
  75              	.LVL2:
  76              	.L7:
  77              		.loc 1 64 1 view .LVU21
  78              		.align	2
  79              	.L6:
  80 0024 12000000 		.word	.LANCHOR0-(.LPIC0+4)
  81              		.cfi_endproc
  82              	.LFE465:
  83              		.size	_ZN12_GLOBAL__N_118make_legacy_paramsEv, .-_ZN12_GLOBAL__N_118make_legacy_paramsEv
  84              		.align	1
  85              		.weak	_hook_init
  86              		.syntax unified
  87              		.thumb
  88              		.thumb_func
  89              		.type	_hook_init, %function
  90              	_hook_init:
  91              	.LVL3:
  92              	.LFB458:
  93              		.loc 1 9 72 is_stmt 1 view -0
  94              		.cfi_startproc
  95              		@ args = 0, pretend = 0, frame = 0
  96              		@ frame_needed = 0, uses_anonymous_args = 0
  97              		@ link register save eliminated.
  98              		.loc 1 10 3 view .LVU23
  99              		.loc 1 11 3 view .LVU24
 100              		.loc 1 12 1 is_stmt 0 view .LVU25
 101 0028 7047     		bx	lr
 102              		.cfi_endproc
 103              	.LFE458:
 104              		.size	_hook_init, .-_hook_init
 105              		.align	1
 106              		.weak	_hook_cycle
 107              		.syntax unified
 108              		.thumb
 109              		.thumb_func
 110              		.type	_hook_cycle, %function
 111              	_hook_cycle:
 112              	.LVL4:
 113              	.LFB459:
 114              		.loc 1 14 103 is_stmt 1 view -0
ARM GAS  /var/folders/18/xss02wnj1dvbmt0zsb1nmd100000gn/T//ccMZeQuq.s 			page 3


 115              		.cfi_startproc
 116              		@ args = 0, pretend = 0, frame = 0
 117              		@ frame_needed = 0, uses_anonymous_args = 0
 118              		@ link register save eliminated.
 119              		.loc 1 15 3 view .LVU27
 120              		.loc 1 16 3 view .LVU28
 121              		.loc 1 14 103 is_stmt 0 view .LVU29
 122 002a 0846     		mov	r0, r1
 123              	.LVL5:
 124              	.LBB6:
 125              		.loc 1 17 16 view .LVU30
 126 002c 9200     		lsls	r2, r2, #2
 127              	.LVL6:
 128              		.loc 1 17 16 view .LVU31
 129 002e 0021     		movs	r1, #0
 130              	.LVL7:
 131              		.loc 1 17 16 view .LVU32
 132 0030 FFF7FEBF 		b	memset(PLT)
 133              	.LVL8:
 134              		.loc 1 17 16 view .LVU33
 135              	.LBE6:
 136              		.cfi_endproc
 137              	.LFE459:
 138              		.size	_hook_cycle, .-_hook_cycle
 139              		.align	1
 140              		.weak	_hook_on
 141              		.syntax unified
 142              		.thumb
 143              		.thumb_func
 144              		.type	_hook_on, %function
 145              	_hook_on:
 146              	.LVL9:
 147              	.LFB460:
 148              		.loc 1 21 69 is_stmt 1 view -0
 149              		.cfi_startproc
 150              		@ args = 0, pretend = 0, frame = 0
 151              		@ frame_needed = 0, uses_anonymous_args = 0
 152              		@ link register save eliminated.
 153              		.loc 1 22 3 view .LVU35
 154              		.loc 1 23 1 is_stmt 0 view .LVU36
 155 0034 7047     		bx	lr
 156              		.cfi_endproc
 157              	.LFE460:
 158              		.size	_hook_on, .-_hook_on
 159              		.align	1
 160              		.weak	_hook_off
 161              		.syntax unified
 162              		.thumb
 163              		.thumb_func
 164              		.type	_hook_off, %function
 165              	_hook_off:
 166              	.LFB493:
 167              		.cfi_startproc
 168              		@ args = 0, pretend = 0, frame = 0
 169              		@ frame_needed = 0, uses_anonymous_args = 0
 170              		@ link register save eliminated.
 171 0036 7047     		bx	lr
ARM GAS  /var/folders/18/xss02wnj1dvbmt0zsb1nmd100000gn/T//ccMZeQuq.s 			page 4


 172              		.cfi_endproc
 173              	.LFE493:
 174              		.size	_hook_off, .-_hook_off
 175              		.align	1
 176              		.weak	_hook_mute
 177              		.syntax unified
 178              		.thumb
 179              		.thumb_func
 180              		.type	_hook_mute, %function
 181              	_hook_mute:
 182              	.LFB495:
 183              		.cfi_startproc
 184              		@ args = 0, pretend = 0, frame = 0
 185              		@ frame_needed = 0, uses_anonymous_args = 0
 186              		@ link register save eliminated.
 187 0038 7047     		bx	lr
 188              		.cfi_endproc
 189              	.LFE495:
 190              		.size	_hook_mute, .-_hook_mute
 191              		.align	1
 192              		.weak	_hook_value
 193              		.syntax unified
 194              		.thumb
 195              		.thumb_func
 196              		.type	_hook_value, %function
 197              	_hook_value:
 198              	.LVL10:
 199              	.LFB463:
 200              		.loc 1 33 56 is_stmt 1 view -0
 201              		.cfi_startproc
 202              		@ args = 0, pretend = 0, frame = 0
 203              		@ frame_needed = 0, uses_anonymous_args = 0
 204              		@ link register save eliminated.
 205              		.loc 1 34 3 view .LVU38
 206              		.loc 1 35 1 is_stmt 0 view .LVU39
 207 003a 7047     		bx	lr
 208              		.cfi_endproc
 209              	.LFE463:
 210              		.size	_hook_value, .-_hook_value
 211              		.align	1
 212              		.weak	_hook_param
 213              		.syntax unified
 214              		.thumb
 215              		.thumb_func
 216              		.type	_hook_param, %function
 217              	_hook_param:
 218              	.LVL11:
 219              	.LFB464:
 220              		.loc 1 37 72 is_stmt 1 view -0
 221              		.cfi_startproc
 222              		@ args = 0, pretend = 0, frame = 0
 223              		@ frame_needed = 0, uses_anonymous_args = 0
 224              		@ link register save eliminated.
 225              		.loc 1 38 3 view .LVU41
 226              		.loc 1 39 3 view .LVU42
 227              		.loc 1 40 1 is_stmt 0 view .LVU43
 228 003c 7047     		bx	lr
ARM GAS  /var/folders/18/xss02wnj1dvbmt0zsb1nmd100000gn/T//ccMZeQuq.s 			page 5


 229              		.cfi_endproc
 230              	.LFE464:
 231              		.size	_hook_param, .-_hook_param
 232              		.align	1
 233              		.global	unit_teardown
 234              		.syntax unified
 235              		.thumb
 236              		.thumb_func
 237              		.type	unit_teardown, %function
 238              	unit_teardown:
 239              	.LFB469:
 240              		.loc 1 117 38 is_stmt 1 view -0
 241              		.cfi_startproc
 242              		@ args = 0, pretend = 0, frame = 0
 243              		@ frame_needed = 0, uses_anonymous_args = 0
 244              		@ link register save eliminated.
 245              		.loc 1 118 3 view .LVU45
 246              		.loc 1 118 19 is_stmt 0 view .LVU46
 247 003e 024B     		ldr	r3, .L16
 248 0040 0022     		movs	r2, #0
 249              	.LPIC1:
 250 0042 7B44     		add	r3, pc
 251 0044 1A60     		str	r2, [r3]
 252              		.loc 1 119 1 view .LVU47
 253 0046 7047     		bx	lr
 254              	.L17:
 255              		.align	2
 256              	.L16:
 257 0048 02000000 		.word	.LANCHOR0-(.LPIC1+4)
 258              		.cfi_endproc
 259              	.LFE469:
 260              		.size	unit_teardown, .-unit_teardown
 261              		.align	1
 262              		.global	unit_reset
 263              		.syntax unified
 264              		.thumb
 265              		.thumb_func
 266              		.type	unit_reset, %function
 267              	unit_reset:
 268              	.LFB470:
 269              		.loc 1 121 35 is_stmt 1 view -0
 270              		.cfi_startproc
 271              		@ args = 0, pretend = 0, frame = 0
 272              		@ frame_needed = 0, uses_anonymous_args = 0
 273              		@ link register save eliminated.
 274              		.loc 1 121 36 is_stmt 0 view .LVU49
 275 004c 7047     		bx	lr
 276              		.cfi_endproc
 277              	.LFE470:
 278              		.size	unit_reset, .-unit_reset
 279              		.align	1
 280              		.global	unit_resume
 281              		.syntax unified
 282              		.thumb
 283              		.thumb_func
 284              		.type	unit_resume, %function
 285              	unit_resume:
ARM GAS  /var/folders/18/xss02wnj1dvbmt0zsb1nmd100000gn/T//ccMZeQuq.s 			page 6


 286              	.LFB487:
 287              		.cfi_startproc
 288              		@ args = 0, pretend = 0, frame = 0
 289              		@ frame_needed = 0, uses_anonymous_args = 0
 290              		@ link register save eliminated.
 291 004e 7047     		bx	lr
 292              		.cfi_endproc
 293              	.LFE487:
 294              		.size	unit_resume, .-unit_resume
 295              		.align	1
 296              		.global	unit_suspend
 297              		.syntax unified
 298              		.thumb
 299              		.thumb_func
 300              		.type	unit_suspend, %function
 301              	unit_suspend:
 302              	.LFB489:
 303              		.cfi_startproc
 304              		@ args = 0, pretend = 0, frame = 0
 305              		@ frame_needed = 0, uses_anonymous_args = 0
 306              		@ link register save eliminated.
 307 0050 7047     		bx	lr
 308              		.cfi_endproc
 309              	.LFE489:
 310              		.size	unit_suspend, .-unit_suspend
 311              		.align	1
 312              		.global	unit_render
 313              		.syntax unified
 314              		.thumb
 315              		.thumb_func
 316              		.type	unit_render, %function
 317              	unit_render:
 318              	.LVL12:
 319              	.LFB473:
 320              		.loc 1 125 80 is_stmt 1 view -0
 321              		.cfi_startproc
 322              		@ args = 0, pretend = 0, frame = 24
 323              		@ frame_needed = 0, uses_anonymous_args = 0
 324              		.loc 1 126 3 view .LVU51
 325              		.loc 1 128 3 view .LVU52
 326              		.loc 1 125 80 is_stmt 0 view .LVU53
 327 0052 70B5     		push	{r4, r5, r6, lr}
 328              		.cfi_def_cfa_offset 16
 329              		.cfi_offset 4, -16
 330              		.cfi_offset 5, -12
 331              		.cfi_offset 6, -8
 332              		.cfi_offset 14, -4
 333 0054 402A     		cmp	r2, #64
 334              		.loc 1 133 14 view .LVU54
 335 0056 124D     		ldr	r5, .L25+4
 336              		.loc 1 125 80 view .LVU55
 337 0058 86B0     		sub	sp, sp, #24
 338              		.cfi_def_cfa_offset 40
 339              		.loc 1 125 80 view .LVU56
 340 005a 0C46     		mov	r4, r1
 341 005c 28BF     		it	cs
 342 005e 4022     		movcs	r2, #64
ARM GAS  /var/folders/18/xss02wnj1dvbmt0zsb1nmd100000gn/T//ccMZeQuq.s 			page 7


 343              	.LVL13:
 344              		.loc 1 133 14 view .LVU57
 345              	.LPIC2:
 346 0060 7D44     		add	r5, pc
 347              		.loc 1 132 54 view .LVU58
 348 0062 02A8     		add	r0, sp, #8
 349              	.LVL14:
 350              		.loc 1 132 54 view .LVU59
 351 0064 1646     		mov	r6, r2
 352              	.LVL15:
 353              		.loc 1 132 3 is_stmt 1 view .LVU60
 354              		.loc 1 133 14 is_stmt 0 view .LVU61
 355 0066 0435     		adds	r5, r5, #4
 356              		.loc 1 132 54 view .LVU62
 357 0068 0190     		str	r0, [sp, #4]
 358 006a FFF7C9FF 		bl	_ZN12_GLOBAL__N_118make_legacy_paramsEv(PLT)
 359              	.LVL16:
 360              		.loc 1 133 3 is_stmt 1 view .LVU63
 361              		.loc 1 133 14 is_stmt 0 view .LVU64
 362 006e 3246     		mov	r2, r6
 363 0070 2946     		mov	r1, r5
 364 0072 0198     		ldr	r0, [sp, #4]
 365 0074 04EB8606 		add	r6, r4, r6, lsl #2
 366              	.LVL17:
 367              		.loc 1 133 14 view .LVU65
 368 0078 FFF7FEFF 		bl	_hook_cycle(PLT)
 369              	.LVL18:
 370              		.loc 1 135 3 is_stmt 1 view .LVU66
 371              		.loc 1 135 3 is_stmt 0 view .LVU67
 372 007c 2346     		mov	r3, r4
 373              	.LBB7:
 374              		.loc 1 136 18 view .LVU68
 375 007e 9FED077A 		vldr.32	s14, .L25
 376              	.LVL19:
 377              	.L23:
 378              		.loc 1 135 34 is_stmt 1 discriminator 3 view .LVU69
 379 0082 B342     		cmp	r3, r6
 380 0084 08D0     		beq	.L21
 381              		.loc 1 136 5 discriminator 2 view .LVU70
 382              		.loc 1 136 18 is_stmt 0 discriminator 2 view .LVU71
 383 0086 F5EC017A 		vldmia.32	r5!, {s15}	@ int
 384 008a F8EEE77A 		vcvt.f32.s32	s15, s15
 385 008e 67EE877A 		vmul.f32	s15, s15, s14
 386              		.loc 1 136 16 discriminator 2 view .LVU72
 387 0092 E3EC017A 		vstmia.32	r3!, {s15}
 388              		.loc 1 135 3 is_stmt 1 discriminator 2 view .LVU73
 389 0096 F4E7     		b	.L23
 390              	.L21:
 391              	.LBE7:
 392              		.loc 1 138 1 is_stmt 0 view .LVU74
 393 0098 06B0     		add	sp, sp, #24
 394              		.cfi_def_cfa_offset 16
 395              		@ sp needed
 396 009a 70BD     		pop	{r4, r5, r6, pc}
 397              	.LVL20:
 398              	.L26:
 399              		.loc 1 138 1 view .LVU75
ARM GAS  /var/folders/18/xss02wnj1dvbmt0zsb1nmd100000gn/T//ccMZeQuq.s 			page 8


 400              		.align	2
 401              	.L25:
 402 009c 00000030 		.word	805306368
 403 00a0 3C000000 		.word	.LANCHOR0-(.LPIC2+4)
 404              		.cfi_endproc
 405              	.LFE473:
 406              		.size	unit_render, .-unit_render
 407              		.align	1
 408              		.global	unit_set_param_value
 409              		.syntax unified
 410              		.thumb
 411              		.thumb_func
 412              		.type	unit_set_param_value, %function
 413              	unit_set_param_value:
 414              	.LVL21:
 415              	.LFB474:
 416              		.loc 1 140 70 is_stmt 1 view -0
 417              		.cfi_startproc
 418              		@ args = 0, pretend = 0, frame = 0
 419              		@ frame_needed = 0, uses_anonymous_args = 0
 420              		.loc 1 141 3 view .LVU77
 421              		.loc 1 140 70 is_stmt 0 view .LVU78
 422 00a4 08B5     		push	{r3, lr}
 423              		.cfi_def_cfa_offset 8
 424              		.cfi_offset 3, -8
 425              		.cfi_offset 14, -4
 426              		.loc 1 141 3 view .LVU79
 427 00a6 0928     		cmp	r0, #9
 428              		.loc 1 140 70 view .LVU80
 429 00a8 134B     		ldr	r3, .L35
 430              	.LPIC4:
 431 00aa 7B44     		add	r3, pc
 432              		.loc 1 141 3 view .LVU81
 433 00ac 1ED8     		bhi	.L27
 434              	.LVL22:
 435              	.LBB14:
 436              	.LBI14:
 437              		.loc 1 140 22 is_stmt 1 view .LVU82
 438              	.LBB15:
 439              		.loc 1 145 3 view .LVU83
 440              		.loc 1 145 48 is_stmt 0 view .LVU84
 441 00ae 134A     		ldr	r2, .L35+4
 442 00b0 9B58     		ldr	r3, [r3, r2]
 443 00b2 03EB4013 		add	r3, r3, r0, lsl #5
 444 00b6 B3F93820 		ldrsh	r2, [r3, #56]	@ unaligned
 445              		.loc 1 145 24 view .LVU85
 446 00ba B3F93A30 		ldrsh	r3, [r3, #58]	@ unaligned
 447              	.LVL23:
 448              	.LBB16:
 449              	.LBI16:
 450              		.file 2 "/Users/majid/repos/logue-sdk/platform/nts-1_mkii/common/utils/int_math.h"
 451              		.loc 2 77 9 is_stmt 1 view .LVU86
 452              	.LBB17:
 453              		.loc 2 78 3 view .LVU87
 454              		.loc 2 78 21 is_stmt 0 view .LVU88
 455 00be 9942     		cmp	r1, r3
 456 00c0 03DA     		bge	.L30
ARM GAS  /var/folders/18/xss02wnj1dvbmt0zsb1nmd100000gn/T//ccMZeQuq.s 			page 9


 457 00c2 8A42     		cmp	r2, r1
 458 00c4 1346     		mov	r3, r2
 459              	.LVL24:
 460              		.loc 2 78 21 view .LVU89
 461 00c6 B8BF     		it	lt
 462 00c8 0B46     		movlt	r3, r1
 463              	.L30:
 464              	.LVL25:
 465              		.loc 2 78 21 view .LVU90
 466              	.LBE17:
 467              	.LBE16:
 468              		.loc 1 146 3 is_stmt 1 view .LVU91
 469              		.loc 1 146 21 is_stmt 0 view .LVU92
 470 00ca 0D4A     		ldr	r2, .L35+8
 471              	.LPIC5:
 472 00cc 7A44     		add	r2, pc
 473 00ce 02EB8002 		add	r2, r2, r0, lsl #2
 474 00d2 C2F80431 		str	r3, [r2, #260]
 475              		.loc 1 148 3 is_stmt 1 view .LVU93
 476              	.LVL26:
 477              	.LBB18:
 478              	.LBI18:
 479              		.loc 1 72 10 view .LVU94
 480              	.LBB19:
 481              		.loc 1 73 3 view .LVU95
 482 00d6 50B1     		cbz	r0, .L33
 483              		.loc 1 77 3 view .LVU96
 484 00d8 0128     		cmp	r0, #1
 485 00da 0AD0     		beq	.L34
 486              		.loc 1 81 3 view .LVU97
 487              		.loc 1 81 37 is_stmt 0 view .LVU98
 488 00dc 0238     		subs	r0, r0, #2
 489              	.LVL27:
 490              		.loc 1 81 3 view .LVU99
 491 00de C2B2     		uxtb	r2, r0
 492 00e0 052A     		cmp	r2, #5
 493 00e2 03D8     		bhi	.L27
 494              		.loc 1 82 5 is_stmt 1 view .LVU100
 495              		.loc 1 82 62 is_stmt 0 view .LVU101
 496 00e4 80B2     		uxth	r0, r0
 497              	.LVL28:
 498              		.loc 1 82 62 view .LVU102
 499              	.LBE19:
 500              	.LBE18:
 501              		.loc 1 150 3 is_stmt 1 view .LVU103
 502              	.L31:
 503              		.loc 1 151 5 view .LVU104
 504              		.loc 1 151 16 is_stmt 0 view .LVU105
 505 00e6 99B2     		uxth	r1, r3
 506              	.LVL29:
 507              		.loc 1 151 16 view .LVU106
 508 00e8 FFF7FEFF 		bl	_hook_param(PLT)
 509              	.LVL30:
 510              	.L27:
 511              		.loc 1 151 16 view .LVU107
 512              	.LBE15:
 513              	.LBE14:
ARM GAS  /var/folders/18/xss02wnj1dvbmt0zsb1nmd100000gn/T//ccMZeQuq.s 			page 10


 514              		.loc 1 153 1 view .LVU108
 515 00ec 08BD     		pop	{r3, pc}
 516              	.LVL31:
 517              	.L33:
 518              	.LBB23:
 519              	.LBB22:
 520              	.LBB21:
 521              	.LBB20:
 522              		.loc 1 74 12 view .LVU109
 523 00ee 0620     		movs	r0, #6
 524              	.LVL32:
 525              		.loc 1 74 12 view .LVU110
 526 00f0 F9E7     		b	.L31
 527              	.LVL33:
 528              	.L34:
 529              		.loc 1 78 12 view .LVU111
 530 00f2 0720     		movs	r0, #7
 531              	.LVL34:
 532              		.loc 1 78 12 view .LVU112
 533 00f4 F7E7     		b	.L31
 534              	.L36:
 535 00f6 00BF     		.align	2
 536              	.L35:
 537 00f8 4A000000 		.word	_GLOBAL_OFFSET_TABLE_-(.LPIC4+4)
 538 00fc 00000000 		.word	unit_header(GOT)
 539 0100 30000000 		.word	.LANCHOR0-(.LPIC5+4)
 540              	.LBE20:
 541              	.LBE21:
 542              	.LBE22:
 543              	.LBE23:
 544              		.cfi_endproc
 545              	.LFE474:
 546              		.size	unit_set_param_value, .-unit_set_param_value
 547              		.align	1
 548              		.global	unit_init
 549              		.syntax unified
 550              		.thumb
 551              		.thumb_func
 552              		.type	unit_init, %function
 553              	unit_init:
 554              	.LVL35:
 555              	.LFB468:
 556              		.loc 1 90 67 is_stmt 1 view -0
 557              		.cfi_startproc
 558              		@ args = 0, pretend = 0, frame = 0
 559              		@ frame_needed = 0, uses_anonymous_args = 0
 560              		.loc 1 91 3 view .LVU114
 561              		.loc 1 90 67 is_stmt 0 view .LVU115
 562 0104 1B4A     		ldr	r2, .L47
 563 0106 38B5     		push	{r3, r4, r5, lr}
 564              		.cfi_def_cfa_offset 16
 565              		.cfi_offset 3, -16
 566              		.cfi_offset 4, -12
 567              		.cfi_offset 5, -8
 568              		.cfi_offset 14, -4
 569              		.loc 1 90 67 view .LVU116
 570              	.LPIC6:
ARM GAS  /var/folders/18/xss02wnj1dvbmt0zsb1nmd100000gn/T//ccMZeQuq.s 			page 11


 571 0108 7A44     		add	r2, pc
 572              		.loc 1 91 3 view .LVU117
 573 010a 38B3     		cbz	r0, .L40
 574              		.loc 1 95 3 is_stmt 1 view .LVU118
 575              		.loc 1 95 35 is_stmt 0 view .LVU119
 576 010c 1A49     		ldr	r1, .L47+4
 577              		.loc 1 95 13 view .LVU120
 578 010e 0368     		ldr	r3, [r0]	@ unaligned
 579              		.loc 1 95 35 view .LVU121
 580 0110 5558     		ldr	r5, [r2, r1]
 581 0112 6A68     		ldr	r2, [r5, #4]	@ unaligned
 582              		.loc 1 95 3 view .LVU122
 583 0114 9342     		cmp	r3, r2
 584 0116 24D1     		bne	.L41
 585              		.loc 1 99 3 is_stmt 1 view .LVU123
 586              		.loc 1 99 8 is_stmt 0 view .LVU124
 587 0118 4168     		ldr	r1, [r0, #4]	@ unaligned
 588 011a 01F4FE02 		and	r2, r1, #8323072
 589              		.loc 1 99 3 view .LVU125
 590 011e B2F5003F 		cmp	r2, #131072
 591 0122 21D1     		bne	.L43
 592              		.loc 1 99 7 discriminator 1 view .LVU126
 593 0124 11F4FE44 		ands	r4, r1, #32512
 594 0128 1ED1     		bne	.L43
 595              		.loc 1 103 3 is_stmt 1 view .LVU127
 596 012a 827B     		ldrb	r2, [r0, #14]	@ zero_extendqisi2
 597 012c 022A     		cmp	r2, #2
 598 012e 1ED1     		bne	.L45
 599              		.loc 1 103 33 is_stmt 0 discriminator 1 view .LVU128
 600 0130 C27B     		ldrb	r2, [r0, #15]	@ zero_extendqisi2
 601 0132 012A     		cmp	r2, #1
 602 0134 1BD1     		bne	.L45
 603              		.loc 1 107 3 is_stmt 1 view .LVU129
 604              		.loc 1 107 19 is_stmt 0 view .LVU130
 605 0136 114A     		ldr	r2, .L47+8
 606              		.loc 1 107 81 view .LVU131
 607 0138 0069     		ldr	r0, [r0, #16]	@ unaligned
 608              	.LVL36:
 609              		.loc 1 107 19 view .LVU132
 610              	.LPIC7:
 611 013a 7A44     		add	r2, pc
 612 013c 1060     		str	r0, [r2]
 613              		.loc 1 108 3 is_stmt 1 view .LVU133
 614              		.loc 1 108 13 is_stmt 0 view .LVU134
 615 013e 1846     		mov	r0, r3
 616 0140 FFF7FEFF 		bl	_hook_init(PLT)
 617              	.LVL37:
 618              		.loc 1 110 3 is_stmt 1 view .LVU135
 619              	.LBB24:
 620              		.loc 1 110 33 view .LVU136
 621              	.L39:
 622              		.loc 1 111 5 discriminator 2 view .LVU137
 623              		.loc 1 111 80 is_stmt 0 discriminator 2 view .LVU138
 624 0144 05EB4413 		add	r3, r5, r4, lsl #5
 625              		.loc 1 111 25 discriminator 2 view .LVU139
 626 0148 E0B2     		uxtb	r0, r4
 627              		.loc 1 110 33 discriminator 2 view .LVU140
ARM GAS  /var/folders/18/xss02wnj1dvbmt0zsb1nmd100000gn/T//ccMZeQuq.s 			page 12


 628 014a 0134     		adds	r4, r4, #1
 629              	.LVL38:
 630              		.loc 1 111 25 discriminator 2 view .LVU141
 631 014c B3F93E10 		ldrsh	r1, [r3, #62]	@ unaligned
 632 0150 FFF7FEFF 		bl	unit_set_param_value(PLT)
 633              	.LVL39:
 634              		.loc 1 110 3 is_stmt 1 discriminator 2 view .LVU142
 635              		.loc 1 110 33 discriminator 2 view .LVU143
 636 0154 0A2C     		cmp	r4, #10
 637 0156 F5D1     		bne	.L39
 638              	.LBE24:
 639              		.loc 1 114 10 is_stmt 0 view .LVU144
 640 0158 0020     		movs	r0, #0
 641              	.L38:
 642              		.loc 1 115 1 view .LVU145
 643 015a 38BD     		pop	{r3, r4, r5, pc}
 644              	.LVL40:
 645              	.L40:
 646              		.loc 1 92 12 view .LVU146
 647 015c 6FF01F00 		mvn	r0, #31
 648              	.LVL41:
 649              		.loc 1 92 12 view .LVU147
 650 0160 FBE7     		b	.L38
 651              	.LVL42:
 652              	.L41:
 653              		.loc 1 96 12 view .LVU148
 654 0162 4FF0FF30 		mov	r0, #-1
 655              	.LVL43:
 656              		.loc 1 96 12 view .LVU149
 657 0166 F8E7     		b	.L38
 658              	.LVL44:
 659              	.L43:
 660              		.loc 1 100 12 view .LVU150
 661 0168 6FF00100 		mvn	r0, #1
 662              	.LVL45:
 663              		.loc 1 100 12 view .LVU151
 664 016c F5E7     		b	.L38
 665              	.LVL46:
 666              	.L45:
 667              		.loc 1 104 12 view .LVU152
 668 016e 6FF00700 		mvn	r0, #7
 669              	.LVL47:
 670              		.loc 1 104 12 view .LVU153
 671 0172 F2E7     		b	.L38
 672              	.L48:
 673              		.align	2
 674              	.L47:
 675 0174 68000000 		.word	_GLOBAL_OFFSET_TABLE_-(.LPIC6+4)
 676 0178 00000000 		.word	unit_header(GOT)
 677 017c 3E000000 		.word	.LANCHOR0-(.LPIC7+4)
 678              		.cfi_endproc
 679              	.LFE468:
 680              		.size	unit_init, .-unit_init
 681              		.align	1
 682              		.global	unit_get_param_value
 683              		.syntax unified
 684              		.thumb
ARM GAS  /var/folders/18/xss02wnj1dvbmt0zsb1nmd100000gn/T//ccMZeQuq.s 			page 13


 685              		.thumb_func
 686              		.type	unit_get_param_value, %function
 687              	unit_get_param_value:
 688              	.LVL48:
 689              	.LFB475:
 690              		.loc 1 155 58 is_stmt 1 view -0
 691              		.cfi_startproc
 692              		@ args = 0, pretend = 0, frame = 0
 693              		@ frame_needed = 0, uses_anonymous_args = 0
 694              		@ link register save eliminated.
 695              		.loc 1 156 3 view .LVU155
 696 0180 0928     		cmp	r0, #9
 697 0182 06D8     		bhi	.L51
 698              		.loc 1 160 3 view .LVU156
 699              		.loc 1 160 26 is_stmt 0 view .LVU157
 700 0184 044B     		ldr	r3, .L52
 701              	.LPIC8:
 702 0186 7B44     		add	r3, pc
 703 0188 03EB8000 		add	r0, r3, r0, lsl #2
 704              	.LVL49:
 705              		.loc 1 160 26 view .LVU158
 706 018c D0F80401 		ldr	r0, [r0, #260]
 707 0190 7047     		bx	lr
 708              	.LVL50:
 709              	.L51:
 710              		.loc 1 157 12 view .LVU159
 711 0192 0020     		movs	r0, #0
 712              	.LVL51:
 713              		.loc 1 161 1 view .LVU160
 714 0194 7047     		bx	lr
 715              	.L53:
 716 0196 00BF     		.align	2
 717              	.L52:
 718 0198 0E000000 		.word	.LANCHOR0-(.LPIC8+4)
 719              		.cfi_endproc
 720              	.LFE475:
 721              		.size	unit_get_param_value, .-unit_get_param_value
 722              		.align	1
 723              		.global	unit_get_param_str_value
 724              		.syntax unified
 725              		.thumb
 726              		.thumb_func
 727              		.type	unit_get_param_str_value, %function
 728              	unit_get_param_str_value:
 729              	.LVL52:
 730              	.LFB476:
 731              		.loc 1 163 81 is_stmt 1 view -0
 732              		.cfi_startproc
 733              		@ args = 0, pretend = 0, frame = 0
 734              		@ frame_needed = 0, uses_anonymous_args = 0
 735              		@ link register save eliminated.
 736              		.loc 1 164 3 view .LVU162
 737              		.loc 1 165 3 view .LVU163
 738              		.loc 1 166 3 view .LVU164
 739              		.loc 1 167 1 is_stmt 0 view .LVU165
 740 019c 0020     		movs	r0, #0
 741              	.LVL53:
ARM GAS  /var/folders/18/xss02wnj1dvbmt0zsb1nmd100000gn/T//ccMZeQuq.s 			page 14


 742              		.loc 1 167 1 view .LVU166
 743 019e 7047     		bx	lr
 744              		.cfi_endproc
 745              	.LFE476:
 746              		.size	unit_get_param_str_value, .-unit_get_param_str_value
 747              		.align	1
 748              		.global	unit_note_on
 749              		.syntax unified
 750              		.thumb
 751              		.thumb_func
 752              		.type	unit_note_on, %function
 753              	unit_note_on:
 754              	.LVL54:
 755              	.LFB477:
 756              		.loc 1 169 67 is_stmt 1 view -0
 757              		.cfi_startproc
 758              		@ args = 0, pretend = 0, frame = 24
 759              		@ frame_needed = 0, uses_anonymous_args = 0
 760              		.loc 1 170 3 view .LVU168
 761              		.loc 1 172 3 view .LVU169
 762              		.loc 1 169 67 is_stmt 0 view .LVU170
 763 01a0 10B5     		push	{r4, lr}
 764              		.cfi_def_cfa_offset 8
 765              		.cfi_offset 4, -8
 766              		.cfi_offset 14, -4
 767 01a2 86B0     		sub	sp, sp, #24
 768              		.cfi_def_cfa_offset 32
 769              		.loc 1 169 67 view .LVU171
 770 01a4 0446     		mov	r4, r0
 771              	.LVL55:
 772              	.LBB27:
 773              	.LBI27:
 774              		.loc 1 66 18 is_stmt 1 view .LVU172
 775              	.LBB28:
 776              		.loc 1 67 3 view .LVU173
 777              		.loc 1 67 48 is_stmt 0 view .LVU174
 778 01a6 02A8     		add	r0, sp, #8
 779              	.LVL56:
 780              		.loc 1 68 46 view .LVU175
 781 01a8 2402     		lsls	r4, r4, #8
 782              	.LVL57:
 783              		.loc 1 67 48 view .LVU176
 784 01aa 0190     		str	r0, [sp, #4]
 785 01ac FFF728FF 		bl	_ZN12_GLOBAL__N_118make_legacy_paramsEv(PLT)
 786              	.LVL58:
 787              		.loc 1 68 3 is_stmt 1 view .LVU177
 788              	.LBE28:
 789              	.LBE27:
 790              		.loc 1 173 11 is_stmt 0 view .LVU178
 791 01b0 0198     		ldr	r0, [sp, #4]
 792              	.LBB30:
 793              	.LBB29:
 794              		.loc 1 68 16 view .LVU179
 795 01b2 ADF80C40 		strh	r4, [sp, #12]	@ movhi
 796              		.loc 1 69 3 is_stmt 1 view .LVU180
 797              		.loc 1 69 3 is_stmt 0 view .LVU181
 798              	.LBE29:
ARM GAS  /var/folders/18/xss02wnj1dvbmt0zsb1nmd100000gn/T//ccMZeQuq.s 			page 15


 799              	.LBE30:
 800              		.loc 1 173 3 is_stmt 1 view .LVU182
 801              		.loc 1 173 11 is_stmt 0 view .LVU183
 802 01b6 FFF7FEFF 		bl	_hook_on(PLT)
 803              	.LVL59:
 804              		.loc 1 174 1 view .LVU184
 805 01ba 06B0     		add	sp, sp, #24
 806              		.cfi_def_cfa_offset 8
 807              		@ sp needed
 808 01bc 10BD     		pop	{r4, pc}
 809              		.cfi_endproc
 810              	.LFE477:
 811              		.size	unit_note_on, .-unit_note_on
 812              		.align	1
 813              		.global	unit_note_off
 814              		.syntax unified
 815              		.thumb
 816              		.thumb_func
 817              		.type	unit_note_off, %function
 818              	unit_note_off:
 819              	.LVL60:
 820              	.LFB478:
 821              		.loc 1 176 50 is_stmt 1 view -0
 822              		.cfi_startproc
 823              		@ args = 0, pretend = 0, frame = 24
 824              		@ frame_needed = 0, uses_anonymous_args = 0
 825              		.loc 1 177 3 view .LVU186
 826              		.loc 1 176 50 is_stmt 0 view .LVU187
 827 01be 10B5     		push	{r4, lr}
 828              		.cfi_def_cfa_offset 8
 829              		.cfi_offset 4, -8
 830              		.cfi_offset 14, -4
 831 01c0 86B0     		sub	sp, sp, #24
 832              		.cfi_def_cfa_offset 32
 833              		.loc 1 176 50 view .LVU188
 834 01c2 0446     		mov	r4, r0
 835              	.LVL61:
 836              	.LBB33:
 837              	.LBI33:
 838              		.loc 1 66 18 is_stmt 1 view .LVU189
 839              	.LBB34:
 840              		.loc 1 67 3 view .LVU190
 841              		.loc 1 67 48 is_stmt 0 view .LVU191
 842 01c4 02A8     		add	r0, sp, #8
 843              	.LVL62:
 844              		.loc 1 68 46 view .LVU192
 845 01c6 2402     		lsls	r4, r4, #8
 846              	.LVL63:
 847              		.loc 1 67 48 view .LVU193
 848 01c8 0190     		str	r0, [sp, #4]
 849 01ca FFF719FF 		bl	_ZN12_GLOBAL__N_118make_legacy_paramsEv(PLT)
 850              	.LVL64:
 851              		.loc 1 68 3 is_stmt 1 view .LVU194
 852              	.LBE34:
 853              	.LBE33:
 854              		.loc 1 178 12 is_stmt 0 view .LVU195
 855 01ce 0198     		ldr	r0, [sp, #4]
ARM GAS  /var/folders/18/xss02wnj1dvbmt0zsb1nmd100000gn/T//ccMZeQuq.s 			page 16


 856              	.LBB36:
 857              	.LBB35:
 858              		.loc 1 68 16 view .LVU196
 859 01d0 ADF80C40 		strh	r4, [sp, #12]	@ movhi
 860              		.loc 1 69 3 is_stmt 1 view .LVU197
 861              		.loc 1 69 3 is_stmt 0 view .LVU198
 862              	.LBE35:
 863              	.LBE36:
 864              		.loc 1 178 3 is_stmt 1 view .LVU199
 865              		.loc 1 178 12 is_stmt 0 view .LVU200
 866 01d4 FFF7FEFF 		bl	_hook_off(PLT)
 867              	.LVL65:
 868              		.loc 1 179 1 view .LVU201
 869 01d8 06B0     		add	sp, sp, #24
 870              		.cfi_def_cfa_offset 8
 871              		@ sp needed
 872 01da 10BD     		pop	{r4, pc}
 873              		.cfi_endproc
 874              	.LFE478:
 875              		.size	unit_note_off, .-unit_note_off
 876              		.align	1
 877              		.global	unit_all_note_off
 878              		.syntax unified
 879              		.thumb
 880              		.thumb_func
 881              		.type	unit_all_note_off, %function
 882              	unit_all_note_off:
 883              	.LFB479:
 884              		.loc 1 181 46 is_stmt 1 view -0
 885              		.cfi_startproc
 886              		@ args = 0, pretend = 0, frame = 24
 887              		@ frame_needed = 0, uses_anonymous_args = 0
 888              		.loc 1 182 3 view .LVU203
 889              		.loc 1 181 46 is_stmt 0 view .LVU204
 890 01dc 7FB5     		push	{r0, r1, r2, r3, r4, r5, r6, lr}
 891              		.cfi_def_cfa_offset 32
 892              		.cfi_offset 14, -4
 893              		.loc 1 182 48 view .LVU205
 894 01de 02A8     		add	r0, sp, #8
 895 01e0 0190     		str	r0, [sp, #4]
 896 01e2 FFF70DFF 		bl	_ZN12_GLOBAL__N_118make_legacy_paramsEv(PLT)
 897              	.LVL66:
 898              		.loc 1 183 3 is_stmt 1 view .LVU206
 899              		.loc 1 183 13 is_stmt 0 view .LVU207
 900 01e6 0198     		ldr	r0, [sp, #4]
 901 01e8 FFF7FEFF 		bl	_hook_mute(PLT)
 902              	.LVL67:
 903              		.loc 1 184 1 view .LVU208
 904 01ec 07B0     		add	sp, sp, #28
 905              		.cfi_def_cfa_offset 4
 906              		@ sp needed
 907 01ee 5DF804FB 		ldr	pc, [sp], #4
 908              		.cfi_endproc
 909              	.LFE479:
 910              		.size	unit_all_note_off, .-unit_all_note_off
 911              		.align	1
 912              		.global	unit_set_tempo
ARM GAS  /var/folders/18/xss02wnj1dvbmt0zsb1nmd100000gn/T//ccMZeQuq.s 			page 17


 913              		.syntax unified
 914              		.thumb
 915              		.thumb_func
 916              		.type	unit_set_tempo, %function
 917              	unit_set_tempo:
 918              	.LVL68:
 919              	.LFB480:
 920              		.loc 1 186 53 is_stmt 1 view -0
 921              		.cfi_startproc
 922              		@ args = 0, pretend = 0, frame = 0
 923              		@ frame_needed = 0, uses_anonymous_args = 0
 924              		@ link register save eliminated.
 925              		.loc 1 187 3 view .LVU210
 926              		.loc 1 188 1 is_stmt 0 view .LVU211
 927 01f2 7047     		bx	lr
 928              		.cfi_endproc
 929              	.LFE480:
 930              		.size	unit_set_tempo, .-unit_set_tempo
 931              		.align	1
 932              		.global	unit_tempo_4ppqn_tick
 933              		.syntax unified
 934              		.thumb
 935              		.thumb_func
 936              		.type	unit_tempo_4ppqn_tick, %function
 937              	unit_tempo_4ppqn_tick:
 938              	.LFB491:
 939              		.cfi_startproc
 940              		@ args = 0, pretend = 0, frame = 0
 941              		@ frame_needed = 0, uses_anonymous_args = 0
 942              		@ link register save eliminated.
 943 01f4 7047     		bx	lr
 944              		.cfi_endproc
 945              	.LFE491:
 946              		.size	unit_tempo_4ppqn_tick, .-unit_tempo_4ppqn_tick
 947              		.align	1
 948              		.global	unit_pitch_bend
 949              		.syntax unified
 950              		.thumb
 951              		.thumb_func
 952              		.type	unit_pitch_bend, %function
 953              	unit_pitch_bend:
 954              	.LVL69:
 955              	.LFB482:
 956              		.loc 1 194 53 is_stmt 1 view -0
 957              		.cfi_startproc
 958              		@ args = 0, pretend = 0, frame = 0
 959              		@ frame_needed = 0, uses_anonymous_args = 0
 960              		.loc 1 195 3 view .LVU213
 961              		.loc 1 194 53 is_stmt 0 view .LVU214
 962 01f6 08B5     		push	{r3, lr}
 963              		.cfi_def_cfa_offset 8
 964              		.cfi_offset 3, -8
 965              		.cfi_offset 14, -4
 966              		.loc 1 195 14 view .LVU215
 967 01f8 FFF7FEFF 		bl	_hook_value(PLT)
 968              	.LVL70:
 969              		.loc 1 196 1 view .LVU216
ARM GAS  /var/folders/18/xss02wnj1dvbmt0zsb1nmd100000gn/T//ccMZeQuq.s 			page 18


 970 01fc 08BD     		pop	{r3, pc}
 971              		.cfi_endproc
 972              	.LFE482:
 973              		.size	unit_pitch_bend, .-unit_pitch_bend
 974              		.align	1
 975              		.global	unit_channel_pressure
 976              		.syntax unified
 977              		.thumb
 978              		.thumb_func
 979              		.type	unit_channel_pressure, %function
 980              	unit_channel_pressure:
 981              	.LVL71:
 982              	.LFB483:
 983              		.loc 1 198 62 is_stmt 1 view -0
 984              		.cfi_startproc
 985              		@ args = 0, pretend = 0, frame = 0
 986              		@ frame_needed = 0, uses_anonymous_args = 0
 987              		.loc 1 199 3 view .LVU218
 988              		.loc 1 198 62 is_stmt 0 view .LVU219
 989 01fe 08B5     		push	{r3, lr}
 990              		.cfi_def_cfa_offset 8
 991              		.cfi_offset 3, -8
 992              		.cfi_offset 14, -4
 993              		.loc 1 199 14 view .LVU220
 994 0200 FFF7FEFF 		bl	_hook_value(PLT)
 995              	.LVL72:
 996              		.loc 1 200 1 view .LVU221
 997 0204 08BD     		pop	{r3, pc}
 998              		.cfi_endproc
 999              	.LFE483:
 1000              		.size	unit_channel_pressure, .-unit_channel_pressure
 1001              		.align	1
 1002              		.global	unit_aftertouch
 1003              		.syntax unified
 1004              		.thumb
 1005              		.thumb_func
 1006              		.type	unit_aftertouch, %function
 1007              	unit_aftertouch:
 1008              	.LVL73:
 1009              	.LFB484:
 1010              		.loc 1 202 70 is_stmt 1 view -0
 1011              		.cfi_startproc
 1012              		@ args = 0, pretend = 0, frame = 0
 1013              		@ frame_needed = 0, uses_anonymous_args = 0
 1014              		.loc 1 203 3 view .LVU223
 1015              		.loc 1 204 3 view .LVU224
 1016              		.loc 1 204 14 is_stmt 0 view .LVU225
 1017 0206 0846     		mov	r0, r1
 1018              	.LVL74:
 1019              		.loc 1 202 70 view .LVU226
 1020 0208 08B5     		push	{r3, lr}
 1021              		.cfi_def_cfa_offset 8
 1022              		.cfi_offset 3, -8
 1023              		.cfi_offset 14, -4
 1024              		.loc 1 204 14 view .LVU227
 1025 020a FFF7FEFF 		bl	_hook_value(PLT)
 1026              	.LVL75:
ARM GAS  /var/folders/18/xss02wnj1dvbmt0zsb1nmd100000gn/T//ccMZeQuq.s 			page 19


 1027              		.loc 1 205 1 view .LVU228
 1028 020e 08BD     		pop	{r3, pc}
 1029              		.cfi_endproc
 1030              	.LFE484:
 1031              		.size	unit_aftertouch, .-unit_aftertouch
 1032              		.bss
 1033              		.align	2
 1034              		.set	.LANCHOR0,. + 0
 1035              		.type	_ZN12_GLOBAL__N_115runtime_contextE, %object
 1036              		.size	_ZN12_GLOBAL__N_115runtime_contextE, 4
 1037              	_ZN12_GLOBAL__N_115runtime_contextE:
 1038 0000 00000000 		.space	4
 1039              		.type	_ZN12_GLOBAL__N_110output_q31E, %object
 1040              		.size	_ZN12_GLOBAL__N_110output_q31E, 256
 1041              	_ZN12_GLOBAL__N_110output_q31E:
 1042 0004 00000000 		.space	256
 1042      00000000 
 1042      00000000 
 1042      00000000 
 1042      00000000 
 1043              		.type	_ZN12_GLOBAL__N_113cached_valuesE, %object
 1044              		.size	_ZN12_GLOBAL__N_113cached_valuesE, 40
 1045              	_ZN12_GLOBAL__N_113cached_valuesE:
 1046 0104 00000000 		.space	40
 1046      00000000 
 1046      00000000 
 1046      00000000 
 1046      00000000 
 1047              		.text
 1048              	.Letext0:
 1049              		.file 3 "/Users/majid/repos/logue-sdk/tools/gcc/gcc-arm-none-eabi-10.3-2021.10/arm-none-eabi/inclu
 1050              		.file 4 "/Users/majid/repos/logue-sdk/tools/gcc/gcc-arm-none-eabi-10.3-2021.10/arm-none-eabi/inclu
 1051              		.file 5 "/Users/majid/repos/logue-sdk/tools/gcc/gcc-arm-none-eabi-10.3-2021.10/arm-none-eabi/inclu
 1052              		.file 6 "/Users/majid/repos/logue-sdk/tools/gcc/gcc-arm-none-eabi-10.3-2021.10/arm-none-eabi/inclu
 1053              		.file 7 "/Users/majid/repos/logue-sdk/tools/gcc/gcc-arm-none-eabi-10.3-2021.10/arm-none-eabi/inclu
 1054              		.file 8 "/Users/majid/repos/logue-sdk/tools/gcc/gcc-arm-none-eabi-10.3-2021.10/arm-none-eabi/inclu
 1055              		.file 9 "/Users/majid/repos/logue-sdk/tools/gcc/gcc-arm-none-eabi-10.3-2021.10/arm-none-eabi/inclu
 1056              		.file 10 "/Users/majid/repos/logue-sdk/tools/gcc/gcc-arm-none-eabi-10.3-2021.10/lib/gcc/arm-none-e
 1057              		.file 11 "/Users/majid/repos/logue-sdk/tools/gcc/gcc-arm-none-eabi-10.3-2021.10/arm-none-eabi/incl
 1058              		.file 12 "/Users/majid/repos/logue-sdk/tools/gcc/gcc-arm-none-eabi-10.3-2021.10/arm-none-eabi/incl
 1059              		.file 13 "/Users/majid/repos/logue-sdk/platform/nts-1_mkii/common/runtime.h"
 1060              		.file 14 "/Users/majid/repos/logue-sdk/platform/nts-1_mkii/common/unit_osc.h"
 1061              		.file 15 "/Users/majid/repos/NTS-1_Binaries/Lyre-1-mkii/src/legacy/userosc.h"
 1062              		.file 16 "/Users/majid/repos/logue-sdk/platform/nts-1_mkii/common/unit.h"
 1063              		.file 17 "<built-in>"